
rv32ui-v-auipc:     file format elf32-littleriscv


Disassembly of section .text.init:

80000000 <reset_vector>:
80000000:	00c0006f          	j	8000000c <handle_reset>

80000004 <nmi_vector>:
80000004:	2780206f          	j	8000227c <wtf>

80000008 <trap_vector>:
80000008:	2740206f          	j	8000227c <wtf>

8000000c <handle_reset>:
8000000c:	00000297          	auipc	t0,0x0
80000010:	ffc28293          	addi	t0,t0,-4 # 80000008 <trap_vector>
80000014:	30529073          	csrw	mtvec,t0
80000018:	00007117          	auipc	sp,0x7
8000001c:	35010113          	addi	sp,sp,848 # 80007368 <_end+0xf70>
80000020:	f14022f3          	csrr	t0,mhartid
80000024:	00c29293          	slli	t0,t0,0xc
80000028:	00510133          	add	sp,sp,t0
8000002c:	34011073          	csrw	mscratch,sp
80000030:	00003517          	auipc	a0,0x3
80000034:	a8050513          	addi	a0,a0,-1408 # 80002ab0 <userstart>
80000038:	0d90206f          	j	80002910 <vm_boot>

8000003c <pop_tf>:
8000003c:	08452283          	lw	t0,132(a0)
80000040:	14129073          	csrw	sepc,t0
80000044:	00452083          	lw	ra,4(a0)
80000048:	00852103          	lw	sp,8(a0)
8000004c:	00c52183          	lw	gp,12(a0)
80000050:	01052203          	lw	tp,16(a0)
80000054:	01452283          	lw	t0,20(a0)
80000058:	01852303          	lw	t1,24(a0)
8000005c:	01c52383          	lw	t2,28(a0)
80000060:	02052403          	lw	s0,32(a0)
80000064:	02452483          	lw	s1,36(a0)
80000068:	02c52583          	lw	a1,44(a0)
8000006c:	03052603          	lw	a2,48(a0)
80000070:	03452683          	lw	a3,52(a0)
80000074:	03852703          	lw	a4,56(a0)
80000078:	03c52783          	lw	a5,60(a0)
8000007c:	04052803          	lw	a6,64(a0)
80000080:	04452883          	lw	a7,68(a0)
80000084:	04852903          	lw	s2,72(a0)
80000088:	04c52983          	lw	s3,76(a0)
8000008c:	05052a03          	lw	s4,80(a0)
80000090:	05452a83          	lw	s5,84(a0)
80000094:	05852b03          	lw	s6,88(a0)
80000098:	05c52b83          	lw	s7,92(a0)
8000009c:	06052c03          	lw	s8,96(a0)
800000a0:	06452c83          	lw	s9,100(a0)
800000a4:	06852d03          	lw	s10,104(a0)
800000a8:	06c52d83          	lw	s11,108(a0)
800000ac:	07052e03          	lw	t3,112(a0)
800000b0:	07452e83          	lw	t4,116(a0)
800000b4:	07852f03          	lw	t5,120(a0)
800000b8:	07c52f83          	lw	t6,124(a0)
800000bc:	02852503          	lw	a0,40(a0)
800000c0:	10200073          	sret

800000c4 <trap_entry>:
800000c4:	14011173          	csrrw	sp,sscratch,sp
800000c8:	00112223          	sw	ra,4(sp)
800000cc:	00312623          	sw	gp,12(sp)
800000d0:	00412823          	sw	tp,16(sp)
800000d4:	00512a23          	sw	t0,20(sp)
800000d8:	00612c23          	sw	t1,24(sp)
800000dc:	00712e23          	sw	t2,28(sp)
800000e0:	02812023          	sw	s0,32(sp)
800000e4:	02912223          	sw	s1,36(sp)
800000e8:	02a12423          	sw	a0,40(sp)
800000ec:	02b12623          	sw	a1,44(sp)
800000f0:	02c12823          	sw	a2,48(sp)
800000f4:	02d12a23          	sw	a3,52(sp)
800000f8:	02e12c23          	sw	a4,56(sp)
800000fc:	02f12e23          	sw	a5,60(sp)
80000100:	05012023          	sw	a6,64(sp)
80000104:	05112223          	sw	a7,68(sp)
80000108:	05212423          	sw	s2,72(sp)
8000010c:	05312623          	sw	s3,76(sp)
80000110:	05412823          	sw	s4,80(sp)
80000114:	05512a23          	sw	s5,84(sp)
80000118:	05612c23          	sw	s6,88(sp)
8000011c:	05712e23          	sw	s7,92(sp)
80000120:	07812023          	sw	s8,96(sp)
80000124:	07912223          	sw	s9,100(sp)
80000128:	07a12423          	sw	s10,104(sp)
8000012c:	07b12623          	sw	s11,108(sp)
80000130:	07c12823          	sw	t3,112(sp)
80000134:	07d12a23          	sw	t4,116(sp)
80000138:	07e12c23          	sw	t5,120(sp)
8000013c:	07f12e23          	sw	t6,124(sp)
80000140:	140112f3          	csrrw	t0,sscratch,sp
80000144:	00512423          	sw	t0,8(sp)
80000148:	100022f3          	csrr	t0,sstatus
8000014c:	08512023          	sw	t0,128(sp)
80000150:	141022f3          	csrr	t0,sepc
80000154:	08512223          	sw	t0,132(sp)
80000158:	143022f3          	csrr	t0,sbadaddr
8000015c:	08512423          	sw	t0,136(sp)
80000160:	142022f3          	csrr	t0,scause
80000164:	08512623          	sw	t0,140(sp)
80000168:	00010513          	mv	a0,sp
8000016c:	3e00206f          	j	8000254c <handle_trap>

Disassembly of section .text:

80002000 <memcpy>:
80002000:	00c5e7b3          	or	a5,a1,a2
80002004:	00f567b3          	or	a5,a0,a5
80002008:	0037f793          	andi	a5,a5,3
8000200c:	00c50633          	add	a2,a0,a2
80002010:	02078263          	beqz	a5,80002034 <memcpy+0x34>
80002014:	00050793          	mv	a5,a0
80002018:	02c57e63          	bleu	a2,a0,80002054 <memcpy+0x54>
8000201c:	00158593          	addi	a1,a1,1
80002020:	fff5c703          	lbu	a4,-1(a1)
80002024:	00178793          	addi	a5,a5,1
80002028:	fee78fa3          	sb	a4,-1(a5)
8000202c:	fec798e3          	bne	a5,a2,8000201c <memcpy+0x1c>
80002030:	00008067          	ret
80002034:	fec57ee3          	bleu	a2,a0,80002030 <memcpy+0x30>
80002038:	00050793          	mv	a5,a0
8000203c:	00458593          	addi	a1,a1,4
80002040:	ffc5a703          	lw	a4,-4(a1)
80002044:	00478793          	addi	a5,a5,4
80002048:	fee7ae23          	sw	a4,-4(a5)
8000204c:	fec7e8e3          	bltu	a5,a2,8000203c <memcpy+0x3c>
80002050:	00008067          	ret
80002054:	00008067          	ret

80002058 <memset>:
80002058:	00c567b3          	or	a5,a0,a2
8000205c:	0037f793          	andi	a5,a5,3
80002060:	02078263          	beqz	a5,80002084 <memset+0x2c>
80002064:	00c50633          	add	a2,a0,a2
80002068:	0ff5f593          	andi	a1,a1,255
8000206c:	00050793          	mv	a5,a0
80002070:	04c57263          	bleu	a2,a0,800020b4 <memset+0x5c>
80002074:	00178793          	addi	a5,a5,1
80002078:	feb78fa3          	sb	a1,-1(a5)
8000207c:	fec79ce3          	bne	a5,a2,80002074 <memset+0x1c>
80002080:	00008067          	ret
80002084:	0ff5f593          	andi	a1,a1,255
80002088:	00859713          	slli	a4,a1,0x8
8000208c:	00e5e733          	or	a4,a1,a4
80002090:	01071793          	slli	a5,a4,0x10
80002094:	00c50633          	add	a2,a0,a2
80002098:	00f76733          	or	a4,a4,a5
8000209c:	fec572e3          	bleu	a2,a0,80002080 <memset+0x28>
800020a0:	00050793          	mv	a5,a0
800020a4:	00478793          	addi	a5,a5,4
800020a8:	fee7ae23          	sw	a4,-4(a5)
800020ac:	fec7ece3          	bltu	a5,a2,800020a4 <memset+0x4c>
800020b0:	00008067          	ret
800020b4:	00008067          	ret

800020b8 <strlen>:
800020b8:	00054783          	lbu	a5,0(a0)
800020bc:	00078e63          	beqz	a5,800020d8 <strlen+0x20>
800020c0:	00050793          	mv	a5,a0
800020c4:	00178793          	addi	a5,a5,1
800020c8:	0007c703          	lbu	a4,0(a5)
800020cc:	fe071ce3          	bnez	a4,800020c4 <strlen+0xc>
800020d0:	40a78533          	sub	a0,a5,a0
800020d4:	00008067          	ret
800020d8:	00000513          	li	a0,0
800020dc:	00008067          	ret

800020e0 <strcmp>:
800020e0:	00150513          	addi	a0,a0,1
800020e4:	fff54783          	lbu	a5,-1(a0)
800020e8:	00158593          	addi	a1,a1,1
800020ec:	fff5c703          	lbu	a4,-1(a1)
800020f0:	00078863          	beqz	a5,80002100 <strcmp+0x20>
800020f4:	fee786e3          	beq	a5,a4,800020e0 <strcmp>
800020f8:	40e78533          	sub	a0,a5,a4
800020fc:	00008067          	ret
80002100:	00000793          	li	a5,0
80002104:	ff5ff06f          	j	800020f8 <strcmp+0x18>

80002108 <memcmp>:
80002108:	00b56733          	or	a4,a0,a1
8000210c:	00377713          	andi	a4,a4,3
80002110:	04071463          	bnez	a4,80002158 <memcmp+0x50>
80002114:	ffc67813          	andi	a6,a2,-4
80002118:	01050833          	add	a6,a0,a6
8000211c:	07057663          	bleu	a6,a0,80002188 <memcmp+0x80>
80002120:	00052683          	lw	a3,0(a0)
80002124:	0005a783          	lw	a5,0(a1)
80002128:	06f69063          	bne	a3,a5,80002188 <memcmp+0x80>
8000212c:	00050793          	mv	a5,a0
80002130:	0100006f          	j	80002140 <memcmp+0x38>
80002134:	0007a683          	lw	a3,0(a5)
80002138:	0005a703          	lw	a4,0(a1)
8000213c:	00e69863          	bne	a3,a4,8000214c <memcmp+0x44>
80002140:	00478793          	addi	a5,a5,4
80002144:	00458593          	addi	a1,a1,4
80002148:	ff07e6e3          	bltu	a5,a6,80002134 <memcmp+0x2c>
8000214c:	40a78733          	sub	a4,a5,a0
80002150:	40e60633          	sub	a2,a2,a4
80002154:	00078513          	mv	a0,a5
80002158:	00c58633          	add	a2,a1,a2
8000215c:	0140006f          	j	80002170 <memcmp+0x68>
80002160:	00158593          	addi	a1,a1,1
80002164:	fff54783          	lbu	a5,-1(a0)
80002168:	fff5c703          	lbu	a4,-1(a1)
8000216c:	00e79a63          	bne	a5,a4,80002180 <memcmp+0x78>
80002170:	00150513          	addi	a0,a0,1
80002174:	fec596e3          	bne	a1,a2,80002160 <memcmp+0x58>
80002178:	00000513          	li	a0,0
8000217c:	00008067          	ret
80002180:	40e78533          	sub	a0,a5,a4
80002184:	00008067          	ret
80002188:	00050793          	mv	a5,a0
8000218c:	fc5ff06f          	j	80002150 <memcmp+0x48>

80002190 <strcpy>:
80002190:	00050793          	mv	a5,a0
80002194:	00158593          	addi	a1,a1,1
80002198:	fff5c703          	lbu	a4,-1(a1)
8000219c:	00178793          	addi	a5,a5,1
800021a0:	fee78fa3          	sb	a4,-1(a5)
800021a4:	fe0718e3          	bnez	a4,80002194 <strcpy+0x4>
800021a8:	00008067          	ret

800021ac <atol>:
800021ac:	00054703          	lbu	a4,0(a0)
800021b0:	02000693          	li	a3,32
800021b4:	00050793          	mv	a5,a0
800021b8:	00d71a63          	bne	a4,a3,800021cc <atol+0x20>
800021bc:	00070693          	mv	a3,a4
800021c0:	00178793          	addi	a5,a5,1
800021c4:	0007c703          	lbu	a4,0(a5)
800021c8:	fed70ce3          	beq	a4,a3,800021c0 <atol+0x14>
800021cc:	fd570693          	addi	a3,a4,-43
800021d0:	0fd6f693          	andi	a3,a3,253
800021d4:	04068263          	beqz	a3,80002218 <atol+0x6c>
800021d8:	0007c683          	lbu	a3,0(a5)
800021dc:	00000613          	li	a2,0
800021e0:	04068a63          	beqz	a3,80002234 <atol+0x88>
800021e4:	00000713          	li	a4,0
800021e8:	00178793          	addi	a5,a5,1
800021ec:	00271513          	slli	a0,a4,0x2
800021f0:	fd068593          	addi	a1,a3,-48
800021f4:	0007c683          	lbu	a3,0(a5)
800021f8:	00e50533          	add	a0,a0,a4
800021fc:	00151513          	slli	a0,a0,0x1
80002200:	00a58733          	add	a4,a1,a0
80002204:	fe0692e3          	bnez	a3,800021e8 <atol+0x3c>
80002208:	00060463          	beqz	a2,80002210 <atol+0x64>
8000220c:	40e00733          	neg	a4,a4
80002210:	00070513          	mv	a0,a4
80002214:	00008067          	ret
80002218:	0017c683          	lbu	a3,1(a5)
8000221c:	fd370713          	addi	a4,a4,-45
80002220:	00173613          	seqz	a2,a4
80002224:	00178793          	addi	a5,a5,1
80002228:	fa069ee3          	bnez	a3,800021e4 <atol+0x38>
8000222c:	00000713          	li	a4,0
80002230:	fd9ff06f          	j	80002208 <atol+0x5c>
80002234:	00000713          	li	a4,0
80002238:	fd9ff06f          	j	80002210 <atol+0x64>

8000223c <terminate>:
8000223c:	fffff697          	auipc	a3,0xfffff
80002240:	dc468693          	addi	a3,a3,-572 # 80001000 <tohost>
80002244:	00a6a023          	sw	a0,0(a3)
80002248:	41f55793          	srai	a5,a0,0x1f
8000224c:	00f6a223          	sw	a5,4(a3)
80002250:	fffff697          	auipc	a3,0xfffff
80002254:	df068693          	addi	a3,a3,-528 # 80001040 <fromhost>
80002258:	0006a703          	lw	a4,0(a3)
8000225c:	0046a783          	lw	a5,4(a3)
80002260:	00f767b3          	or	a5,a4,a5
80002264:	fe078ae3          	beqz	a5,80002258 <terminate+0x1c>
80002268:	00000713          	li	a4,0
8000226c:	00000793          	li	a5,0
80002270:	00e6a023          	sw	a4,0(a3)
80002274:	00f6a223          	sw	a5,4(a3)
80002278:	0000006f          	j	80002278 <terminate+0x3c>

8000227c <wtf>:
8000227c:	ff010113          	addi	sp,sp,-16
80002280:	34900513          	li	a0,841
80002284:	00112623          	sw	ra,12(sp)
80002288:	fb5ff0ef          	jal	8000223c <terminate>

8000228c <printhex>:
8000228c:	fe010113          	addi	sp,sp,-32
80002290:	01b10713          	addi	a4,sp,27
80002294:	00b10f13          	addi	t5,sp,11
80002298:	00900313          	li	t1,9
8000229c:	05700893          	li	a7,87
800022a0:	03000f93          	li	t6,48
800022a4:	00f57693          	andi	a3,a0,15
800022a8:	01c59613          	slli	a2,a1,0x1c
800022ac:	00455513          	srli	a0,a0,0x4
800022b0:	00088793          	mv	a5,a7
800022b4:	0ff6f813          	andi	a6,a3,255
800022b8:	00d36463          	bltu	t1,a3,800022c0 <printhex+0x34>
800022bc:	000f8793          	mv	a5,t6
800022c0:	010787b3          	add	a5,a5,a6
800022c4:	00f70023          	sb	a5,0(a4)
800022c8:	fff70713          	addi	a4,a4,-1
800022cc:	00a66533          	or	a0,a2,a0
800022d0:	0045d593          	srli	a1,a1,0x4
800022d4:	fde718e3          	bne	a4,t5,800022a4 <printhex+0x18>
800022d8:	00c14783          	lbu	a5,12(sp)
800022dc:	00010e23          	sb	zero,28(sp)
800022e0:	00c10613          	addi	a2,sp,12
800022e4:	fffff517          	auipc	a0,0xfffff
800022e8:	d1c50513          	addi	a0,a0,-740 # 80001000 <tohost>
800022ec:	fffff697          	auipc	a3,0xfffff
800022f0:	d5468693          	addi	a3,a3,-684 # 80001040 <fromhost>
800022f4:	010105b7          	lui	a1,0x1010
800022f8:	02078c63          	beqz	a5,80002330 <printhex+0xa4>
800022fc:	00f52023          	sw	a5,0(a0)
80002300:	00160613          	addi	a2,a2,1
80002304:	00b52223          	sw	a1,4(a0)
80002308:	0006a703          	lw	a4,0(a3)
8000230c:	0046a783          	lw	a5,4(a3)
80002310:	00f767b3          	or	a5,a4,a5
80002314:	fe078ae3          	beqz	a5,80002308 <printhex+0x7c>
80002318:	00000813          	li	a6,0
8000231c:	00064783          	lbu	a5,0(a2)
80002320:	00000893          	li	a7,0
80002324:	0106a023          	sw	a6,0(a3)
80002328:	0116a223          	sw	a7,4(a3)
8000232c:	fc0798e3          	bnez	a5,800022fc <printhex+0x70>
80002330:	02010113          	addi	sp,sp,32
80002334:	00008067          	ret

80002338 <handle_fault>:
80002338:	fffff7b7          	lui	a5,0xfffff
8000233c:	00f506b3          	add	a3,a0,a5
80002340:	0003e737          	lui	a4,0x3e
80002344:	0ee6fa63          	bleu	a4,a3,80002438 <handle_fault+0x100>
80002348:	00004697          	auipc	a3,0x4
8000234c:	0ac6a683          	lw	a3,172(a3) # 800063f4 <freelist_head>
80002350:	00f577b3          	and	a5,a0,a5
80002354:	1a068063          	beqz	a3,800024f4 <handle_fault+0x1bc>
80002358:	0046a703          	lw	a4,4(a3)
8000235c:	00004617          	auipc	a2,0x4
80002360:	09462603          	lw	a2,148(a2) # 800063f0 <freelist_tail>
80002364:	00004597          	auipc	a1,0x4
80002368:	08e5a823          	sw	a4,144(a1) # 800063f4 <freelist_head>
8000236c:	0cc70063          	beq	a4,a2,8000242c <handle_fault+0xf4>
80002370:	0006a703          	lw	a4,0(a3)
80002374:	00c55513          	srli	a0,a0,0xc
80002378:	40050613          	addi	a2,a0,1024
8000237c:	00c75713          	srli	a4,a4,0xc
80002380:	00261593          	slli	a1,a2,0x2
80002384:	00a71713          	slli	a4,a4,0xa
80002388:	00001617          	auipc	a2,0x1
8000238c:	c7860613          	addi	a2,a2,-904 # 80003000 <begin_signature>
80002390:	00b60633          	add	a2,a2,a1
80002394:	01f76713          	ori	a4,a4,31
80002398:	00e62023          	sw	a4,0(a2)
8000239c:	10400073          	sfence.vm
800023a0:	00004717          	auipc	a4,0x4
800023a4:	e5870713          	addi	a4,a4,-424 # 800061f8 <user_mapping>
800023a8:	00351513          	slli	a0,a0,0x3
800023ac:	00a70533          	add	a0,a4,a0
800023b0:	00052703          	lw	a4,0(a0)
800023b4:	0e071463          	bnez	a4,8000249c <handle_fault+0x164>
800023b8:	0006a603          	lw	a2,0(a3)
800023bc:	ffc00737          	lui	a4,0xffc00
800023c0:	00e78733          	add	a4,a5,a4
800023c4:	00c52023          	sw	a2,0(a0)
800023c8:	0046a683          	lw	a3,4(a3)
800023cc:	00d52223          	sw	a3,4(a0)
800023d0:	000016b7          	lui	a3,0x1
800023d4:	00d706b3          	add	a3,a4,a3
800023d8:	00072e83          	lw	t4,0(a4) # ffc00000 <_end+0x7fbf9c08>
800023dc:	00472e03          	lw	t3,4(a4)
800023e0:	00872303          	lw	t1,8(a4)
800023e4:	00c72883          	lw	a7,12(a4)
800023e8:	01072803          	lw	a6,16(a4)
800023ec:	01472503          	lw	a0,20(a4)
800023f0:	01872583          	lw	a1,24(a4)
800023f4:	01c72603          	lw	a2,28(a4)
800023f8:	01d7a023          	sw	t4,0(a5) # fffff000 <_end+0x7fff8c08>
800023fc:	01c7a223          	sw	t3,4(a5)
80002400:	0067a423          	sw	t1,8(a5)
80002404:	0117a623          	sw	a7,12(a5)
80002408:	0107a823          	sw	a6,16(a5)
8000240c:	00a7aa23          	sw	a0,20(a5)
80002410:	00b7ac23          	sw	a1,24(a5)
80002414:	00c7ae23          	sw	a2,28(a5)
80002418:	02070713          	addi	a4,a4,32
8000241c:	02078793          	addi	a5,a5,32
80002420:	fad71ce3          	bne	a4,a3,800023d8 <handle_fault+0xa0>
80002424:	0000100f          	fence.i
80002428:	00008067          	ret
8000242c:	00004717          	auipc	a4,0x4
80002430:	fc072223          	sw	zero,-60(a4) # 800063f0 <freelist_tail>
80002434:	f3dff06f          	j	80002370 <handle_fault+0x38>
80002438:	04100793          	li	a5,65
8000243c:	00000597          	auipc	a1,0x0
80002440:	6d458593          	addi	a1,a1,1748 # 80002b10 <pass+0xc>
80002444:	fffff617          	auipc	a2,0xfffff
80002448:	bbc60613          	addi	a2,a2,-1092 # 80001000 <tohost>
8000244c:	fffff697          	auipc	a3,0xfffff
80002450:	bf468693          	addi	a3,a3,-1036 # 80001040 <fromhost>
80002454:	01010537          	lui	a0,0x1010
80002458:	00f62023          	sw	a5,0(a2)
8000245c:	00158593          	addi	a1,a1,1
80002460:	00a62223          	sw	a0,4(a2)
80002464:	0006a703          	lw	a4,0(a3)
80002468:	0046a783          	lw	a5,4(a3)
8000246c:	00f767b3          	or	a5,a4,a5
80002470:	fe078ae3          	beqz	a5,80002464 <handle_fault+0x12c>
80002474:	00000813          	li	a6,0
80002478:	0005c783          	lbu	a5,0(a1)
8000247c:	00000893          	li	a7,0
80002480:	0106a023          	sw	a6,0(a3)
80002484:	0116a223          	sw	a7,4(a3)
80002488:	fc0798e3          	bnez	a5,80002458 <handle_fault+0x120>
8000248c:	ff010113          	addi	sp,sp,-16
80002490:	00300513          	li	a0,3
80002494:	00112623          	sw	ra,12(sp)
80002498:	da5ff0ef          	jal	8000223c <terminate>
8000249c:	04100793          	li	a5,65
800024a0:	00000597          	auipc	a1,0x0
800024a4:	6cc58593          	addi	a1,a1,1740 # 80002b6c <pass+0x68>
800024a8:	fffff617          	auipc	a2,0xfffff
800024ac:	b5860613          	addi	a2,a2,-1192 # 80001000 <tohost>
800024b0:	fffff697          	auipc	a3,0xfffff
800024b4:	b9068693          	addi	a3,a3,-1136 # 80001040 <fromhost>
800024b8:	01010537          	lui	a0,0x1010
800024bc:	00f62023          	sw	a5,0(a2)
800024c0:	00158593          	addi	a1,a1,1
800024c4:	00a62223          	sw	a0,4(a2)
800024c8:	0006a703          	lw	a4,0(a3)
800024cc:	0046a783          	lw	a5,4(a3)
800024d0:	00f767b3          	or	a5,a4,a5
800024d4:	fe078ae3          	beqz	a5,800024c8 <handle_fault+0x190>
800024d8:	00000313          	li	t1,0
800024dc:	0005c783          	lbu	a5,0(a1)
800024e0:	00000393          	li	t2,0
800024e4:	0066a023          	sw	t1,0(a3)
800024e8:	0076a223          	sw	t2,4(a3)
800024ec:	fc0798e3          	bnez	a5,800024bc <handle_fault+0x184>
800024f0:	f9dff06f          	j	8000248c <handle_fault+0x154>
800024f4:	04100793          	li	a5,65
800024f8:	00000597          	auipc	a1,0x0
800024fc:	65c58593          	addi	a1,a1,1628 # 80002b54 <pass+0x50>
80002500:	fffff617          	auipc	a2,0xfffff
80002504:	b0060613          	addi	a2,a2,-1280 # 80001000 <tohost>
80002508:	fffff697          	auipc	a3,0xfffff
8000250c:	b3868693          	addi	a3,a3,-1224 # 80001040 <fromhost>
80002510:	01010537          	lui	a0,0x1010
80002514:	00f62023          	sw	a5,0(a2)
80002518:	00158593          	addi	a1,a1,1
8000251c:	00a62223          	sw	a0,4(a2)
80002520:	0006a703          	lw	a4,0(a3)
80002524:	0046a783          	lw	a5,4(a3)
80002528:	00f767b3          	or	a5,a4,a5
8000252c:	fe078ae3          	beqz	a5,80002520 <handle_fault+0x1e8>
80002530:	00000813          	li	a6,0
80002534:	0005c783          	lbu	a5,0(a1)
80002538:	00000893          	li	a7,0
8000253c:	0106a023          	sw	a6,0(a3)
80002540:	0116a223          	sw	a7,4(a3)
80002544:	fc0798e3          	bnez	a5,80002514 <handle_fault+0x1dc>
80002548:	f45ff06f          	j	8000248c <handle_fault+0x154>

8000254c <handle_trap>:
8000254c:	08c52783          	lw	a5,140(a0) # 101008c <reset_vector-0x7efeff74>
80002550:	fb010113          	addi	sp,sp,-80
80002554:	04812423          	sw	s0,72(sp)
80002558:	04112623          	sw	ra,76(sp)
8000255c:	04912223          	sw	s1,68(sp)
80002560:	05212023          	sw	s2,64(sp)
80002564:	03312e23          	sw	s3,60(sp)
80002568:	03412c23          	sw	s4,56(sp)
8000256c:	03512a23          	sw	s5,52(sp)
80002570:	03612823          	sw	s6,48(sp)
80002574:	03712623          	sw	s7,44(sp)
80002578:	03812423          	sw	s8,40(sp)
8000257c:	03912223          	sw	s9,36(sp)
80002580:	03a12023          	sw	s10,32(sp)
80002584:	01b12e23          	sw	s11,28(sp)
80002588:	00800713          	li	a4,8
8000258c:	00050413          	mv	s0,a0
80002590:	0ee78863          	beq	a5,a4,80002680 <handle_trap+0x134>
80002594:	00200713          	li	a4,2
80002598:	06e78263          	beq	a5,a4,800025fc <handle_trap+0xb0>
8000259c:	ffb7f713          	andi	a4,a5,-5
800025a0:	00100693          	li	a3,1
800025a4:	00d70663          	beq	a4,a3,800025b0 <handle_trap+0x64>
800025a8:	00700713          	li	a4,7
800025ac:	2ae79a63          	bne	a5,a4,80002860 <handle_trap+0x314>
800025b0:	08842503          	lw	a0,136(s0)
800025b4:	d85ff0ef          	jal	80002338 <handle_fault>
800025b8:	00040513          	mv	a0,s0
800025bc:	04c12083          	lw	ra,76(sp)
800025c0:	04812403          	lw	s0,72(sp)
800025c4:	04412483          	lw	s1,68(sp)
800025c8:	04012903          	lw	s2,64(sp)
800025cc:	03c12983          	lw	s3,60(sp)
800025d0:	03812a03          	lw	s4,56(sp)
800025d4:	03412a83          	lw	s5,52(sp)
800025d8:	03012b03          	lw	s6,48(sp)
800025dc:	02c12b83          	lw	s7,44(sp)
800025e0:	02812c03          	lw	s8,40(sp)
800025e4:	02412c83          	lw	s9,36(sp)
800025e8:	02012d03          	lw	s10,32(sp)
800025ec:	01c12d83          	lw	s11,28(sp)
800025f0:	05010113          	addi	sp,sp,80
800025f4:	ffffe317          	auipc	t1,0xffffe
800025f8:	a4830067          	jr	t1,-1464 # 8000003c <pop_tf>
800025fc:	08452703          	lw	a4,132(a0)
80002600:	00377793          	andi	a5,a4,3
80002604:	2a079a63          	bnez	a5,800028b8 <handle_trap+0x36c>
80002608:	008007ef          	jal	a5,80002610 <handle_trap+0xc4>
8000260c:	00301073          	fssr	zero
80002610:	00072303          	lw	t1,0(a4)
80002614:	0007a703          	lw	a4,0(a5)
80002618:	00000617          	auipc	a2,0x0
8000261c:	61c60613          	addi	a2,a2,1564 # 80002c34 <pass+0x130>
80002620:	04100793          	li	a5,65
80002624:	fffff597          	auipc	a1,0xfffff
80002628:	9dc58593          	addi	a1,a1,-1572 # 80001000 <tohost>
8000262c:	fffff697          	auipc	a3,0xfffff
80002630:	a1468693          	addi	a3,a3,-1516 # 80001040 <fromhost>
80002634:	01010537          	lui	a0,0x1010
80002638:	04e30063          	beq	t1,a4,80002678 <handle_trap+0x12c>
8000263c:	00f5a023          	sw	a5,0(a1)
80002640:	00160613          	addi	a2,a2,1
80002644:	00a5a223          	sw	a0,4(a1)
80002648:	0006a703          	lw	a4,0(a3)
8000264c:	0046a783          	lw	a5,4(a3)
80002650:	00f767b3          	or	a5,a4,a5
80002654:	fe078ae3          	beqz	a5,80002648 <handle_trap+0xfc>
80002658:	00000313          	li	t1,0
8000265c:	00064783          	lbu	a5,0(a2)
80002660:	00000393          	li	t2,0
80002664:	0066a023          	sw	t1,0(a3)
80002668:	0076a223          	sw	t2,4(a3)
8000266c:	fc0798e3          	bnez	a5,8000263c <handle_trap+0xf0>
80002670:	00300513          	li	a0,3
80002674:	bc9ff0ef          	jal	8000223c <terminate>
80002678:	00100513          	li	a0,1
8000267c:	bc1ff0ef          	jal	8000223c <terminate>
80002680:	02852d03          	lw	s10,40(a0) # 1010028 <reset_vector-0x7efeffd8>
80002684:	00001937          	lui	s2,0x1
80002688:	00004a97          	auipc	s5,0x4
8000268c:	b70a8a93          	addi	s5,s5,-1168 # 800061f8 <user_mapping>
80002690:	00001897          	auipc	a7,0x1
80002694:	97088893          	addi	a7,a7,-1680 # 80003000 <begin_signature>
80002698:	fffff837          	lui	a6,0xfffff
8000269c:	ffc006b7          	lui	a3,0xffc00
800026a0:	00090a13          	mv	s4,s2
800026a4:	0003fdb7          	lui	s11,0x3f
800026a8:	00c95793          	srli	a5,s2,0xc
800026ac:	00379493          	slli	s1,a5,0x3
800026b0:	009a8733          	add	a4,s5,s1
800026b4:	00072703          	lw	a4,0(a4)
800026b8:	0c070a63          	beqz	a4,8000278c <handle_trap+0x240>
800026bc:	40078793          	addi	a5,a5,1024
800026c0:	00279793          	slli	a5,a5,0x2
800026c4:	00f887b3          	add	a5,a7,a5
800026c8:	0007a983          	lw	s3,0(a5)
800026cc:	0409f793          	andi	a5,s3,64
800026d0:	0e078063          	beqz	a5,800027b0 <handle_trap+0x264>
800026d4:	01097733          	and	a4,s2,a6
800026d8:	00d70433          	add	s0,a4,a3
800026dc:	000a0613          	mv	a2,s4
800026e0:	00040593          	mv	a1,s0
800026e4:	00070513          	mv	a0,a4
800026e8:	01112623          	sw	a7,12(sp)
800026ec:	01012423          	sw	a6,8(sp)
800026f0:	00d12223          	sw	a3,4(sp)
800026f4:	00e12023          	sw	a4,0(sp)
800026f8:	a11ff0ef          	jal	80002108 <memcmp>
800026fc:	00412683          	lw	a3,4(sp)
80002700:	00812803          	lw	a6,8(sp)
80002704:	00c12883          	lw	a7,12(sp)
80002708:	06050263          	beqz	a0,8000276c <handle_trap+0x220>
8000270c:	0809f993          	andi	s3,s3,128
80002710:	00012703          	lw	a4,0(sp)
80002714:	0e098a63          	beqz	s3,80002808 <handle_trap+0x2bc>
80002718:	00040793          	mv	a5,s0
8000271c:	01440633          	add	a2,s0,s4
80002720:	0007a283          	lw	t0,0(a5)
80002724:	0047af83          	lw	t6,4(a5)
80002728:	0087af03          	lw	t5,8(a5)
8000272c:	00c7ae83          	lw	t4,12(a5)
80002730:	0107ae03          	lw	t3,16(a5)
80002734:	0147a303          	lw	t1,20(a5)
80002738:	0187a503          	lw	a0,24(a5)
8000273c:	01c7a583          	lw	a1,28(a5)
80002740:	00572023          	sw	t0,0(a4)
80002744:	01f72223          	sw	t6,4(a4)
80002748:	01e72423          	sw	t5,8(a4)
8000274c:	01d72623          	sw	t4,12(a4)
80002750:	01c72823          	sw	t3,16(a4)
80002754:	00672a23          	sw	t1,20(a4)
80002758:	00a72c23          	sw	a0,24(a4)
8000275c:	00b72e23          	sw	a1,28(a4)
80002760:	02078793          	addi	a5,a5,32
80002764:	02070713          	addi	a4,a4,32
80002768:	fac79ce3          	bne	a5,a2,80002720 <handle_trap+0x1d4>
8000276c:	009a87b3          	add	a5,s5,s1
80002770:	0007a023          	sw	zero,0(a5)
80002774:	00004717          	auipc	a4,0x4
80002778:	c7c72703          	lw	a4,-900(a4) # 800063f0 <freelist_tail>
8000277c:	02070063          	beqz	a4,8000279c <handle_trap+0x250>
80002780:	00f72223          	sw	a5,4(a4)
80002784:	00004717          	auipc	a4,0x4
80002788:	c6f72623          	sw	a5,-916(a4) # 800063f0 <freelist_tail>
8000278c:	01490933          	add	s2,s2,s4
80002790:	f1b91ce3          	bne	s2,s11,800026a8 <handle_trap+0x15c>
80002794:	000d0513          	mv	a0,s10
80002798:	aa5ff0ef          	jal	8000223c <terminate>
8000279c:	00004717          	auipc	a4,0x4
800027a0:	c4f72a23          	sw	a5,-940(a4) # 800063f0 <freelist_tail>
800027a4:	00004717          	auipc	a4,0x4
800027a8:	c4f72823          	sw	a5,-944(a4) # 800063f4 <freelist_head>
800027ac:	fe1ff06f          	j	8000278c <handle_trap+0x240>
800027b0:	04100793          	li	a5,65
800027b4:	00000617          	auipc	a2,0x0
800027b8:	3f460613          	addi	a2,a2,1012 # 80002ba8 <pass+0xa4>
800027bc:	fffff597          	auipc	a1,0xfffff
800027c0:	84458593          	addi	a1,a1,-1980 # 80001000 <tohost>
800027c4:	fffff697          	auipc	a3,0xfffff
800027c8:	87c68693          	addi	a3,a3,-1924 # 80001040 <fromhost>
800027cc:	01010537          	lui	a0,0x1010
800027d0:	00f5a023          	sw	a5,0(a1)
800027d4:	00160613          	addi	a2,a2,1
800027d8:	00a5a223          	sw	a0,4(a1)
800027dc:	0006a703          	lw	a4,0(a3)
800027e0:	0046a783          	lw	a5,4(a3)
800027e4:	00f767b3          	or	a5,a4,a5
800027e8:	fe078ae3          	beqz	a5,800027dc <handle_trap+0x290>
800027ec:	00000813          	li	a6,0
800027f0:	00064783          	lbu	a5,0(a2)
800027f4:	00000893          	li	a7,0
800027f8:	0106a023          	sw	a6,0(a3)
800027fc:	0116a223          	sw	a7,4(a3)
80002800:	fc0798e3          	bnez	a5,800027d0 <handle_trap+0x284>
80002804:	e6dff06f          	j	80002670 <handle_trap+0x124>
80002808:	04100793          	li	a5,65
8000280c:	00000617          	auipc	a2,0x0
80002810:	3d060613          	addi	a2,a2,976 # 80002bdc <pass+0xd8>
80002814:	ffffe597          	auipc	a1,0xffffe
80002818:	7ec58593          	addi	a1,a1,2028 # 80001000 <tohost>
8000281c:	fffff697          	auipc	a3,0xfffff
80002820:	82468693          	addi	a3,a3,-2012 # 80001040 <fromhost>
80002824:	01010537          	lui	a0,0x1010
80002828:	00f5a023          	sw	a5,0(a1)
8000282c:	00160613          	addi	a2,a2,1
80002830:	00a5a223          	sw	a0,4(a1)
80002834:	0006a703          	lw	a4,0(a3)
80002838:	0046a783          	lw	a5,4(a3)
8000283c:	00f767b3          	or	a5,a4,a5
80002840:	fe078ae3          	beqz	a5,80002834 <handle_trap+0x2e8>
80002844:	00000813          	li	a6,0
80002848:	00064783          	lbu	a5,0(a2)
8000284c:	00000893          	li	a7,0
80002850:	0106a023          	sw	a6,0(a3)
80002854:	0116a223          	sw	a7,4(a3)
80002858:	fc0798e3          	bnez	a5,80002828 <handle_trap+0x2dc>
8000285c:	e15ff06f          	j	80002670 <handle_trap+0x124>
80002860:	04100793          	li	a5,65
80002864:	00000617          	auipc	a2,0x0
80002868:	3fc60613          	addi	a2,a2,1020 # 80002c60 <pass+0x15c>
8000286c:	ffffe597          	auipc	a1,0xffffe
80002870:	79458593          	addi	a1,a1,1940 # 80001000 <tohost>
80002874:	ffffe697          	auipc	a3,0xffffe
80002878:	7cc68693          	addi	a3,a3,1996 # 80001040 <fromhost>
8000287c:	01010537          	lui	a0,0x1010
80002880:	00f5a023          	sw	a5,0(a1)
80002884:	00160613          	addi	a2,a2,1
80002888:	00a5a223          	sw	a0,4(a1)
8000288c:	0006a703          	lw	a4,0(a3)
80002890:	0046a783          	lw	a5,4(a3)
80002894:	00f767b3          	or	a5,a4,a5
80002898:	fe078ae3          	beqz	a5,8000288c <handle_trap+0x340>
8000289c:	00000813          	li	a6,0
800028a0:	00064783          	lbu	a5,0(a2)
800028a4:	00000893          	li	a7,0
800028a8:	0106a023          	sw	a6,0(a3)
800028ac:	0116a223          	sw	a7,4(a3)
800028b0:	fc0798e3          	bnez	a5,80002880 <handle_trap+0x334>
800028b4:	dbdff06f          	j	80002670 <handle_trap+0x124>
800028b8:	04100793          	li	a5,65
800028bc:	00000617          	auipc	a2,0x0
800028c0:	35460613          	addi	a2,a2,852 # 80002c10 <pass+0x10c>
800028c4:	ffffe597          	auipc	a1,0xffffe
800028c8:	73c58593          	addi	a1,a1,1852 # 80001000 <tohost>
800028cc:	ffffe697          	auipc	a3,0xffffe
800028d0:	77468693          	addi	a3,a3,1908 # 80001040 <fromhost>
800028d4:	01010537          	lui	a0,0x1010
800028d8:	00f5a023          	sw	a5,0(a1)
800028dc:	00160613          	addi	a2,a2,1
800028e0:	00a5a223          	sw	a0,4(a1)
800028e4:	0006a703          	lw	a4,0(a3)
800028e8:	0046a783          	lw	a5,4(a3)
800028ec:	00f767b3          	or	a5,a4,a5
800028f0:	fe078ae3          	beqz	a5,800028e4 <handle_trap+0x398>
800028f4:	00000813          	li	a6,0
800028f8:	00064783          	lbu	a5,0(a2)
800028fc:	00000893          	li	a7,0
80002900:	0106a023          	sw	a6,0(a3)
80002904:	0116a223          	sw	a7,4(a3)
80002908:	fc0798e3          	bnez	a5,800028d8 <handle_trap+0x38c>
8000290c:	d65ff06f          	j	80002670 <handle_trap+0x124>

80002910 <vm_boot>:
80002910:	f14027f3          	csrr	a5,mhartid
80002914:	14079863          	bnez	a5,80002a64 <vm_boot+0x154>
80002918:	f6010113          	addi	sp,sp,-160
8000291c:	00000797          	auipc	a5,0x0
80002920:	6e478793          	addi	a5,a5,1764 # 80003000 <begin_signature>
80002924:	08112e23          	sw	ra,156(sp)
80002928:	08812c23          	sw	s0,152(sp)
8000292c:	00c7d793          	srli	a5,a5,0xc
80002930:	18079073          	csrw	sptbr,a5
80002934:	00002617          	auipc	a2,0x2
80002938:	6cc60613          	addi	a2,a2,1740 # 80005000 <begin_signature+0x2000>
8000293c:	00001797          	auipc	a5,0x1
80002940:	6c478793          	addi	a5,a5,1732 # 80004000 <begin_signature+0x1000>
80002944:	00c65713          	srli	a4,a2,0xc
80002948:	00c7d793          	srli	a5,a5,0xc
8000294c:	00a71713          	slli	a4,a4,0xa
80002950:	00a79793          	slli	a5,a5,0xa
80002954:	00176713          	ori	a4,a4,1
80002958:	0017e793          	ori	a5,a5,1
8000295c:	00001697          	auipc	a3,0x1
80002960:	6ae6a023          	sw	a4,1696(a3) # 80003ffc <begin_signature+0xffc>
80002964:	00000717          	auipc	a4,0x0
80002968:	68f72e23          	sw	a5,1692(a4) # 80003000 <begin_signature>
8000296c:	7fbfd797          	auipc	a5,0x7fbfd
80002970:	75878793          	addi	a5,a5,1880 # ffc000c4 <_end+0x7fbf9ccc>
80002974:	10579073          	csrw	stvec,a5
80002978:	340027f3          	csrr	a5,mscratch
8000297c:	7fc00e37          	lui	t3,0x7fc00
80002980:	01c787b3          	add	a5,a5,t3
80002984:	14079073          	csrw	sscratch,a5
80002988:	1a200793          	li	a5,418
8000298c:	30279073          	csrw	medeleg,a5
80002990:	0801e7b7          	lui	a5,0x801e
80002994:	30079073          	csrw	mstatus,a5
80002998:	30405073          	csrwi	mie,0
8000299c:	7fc03797          	auipc	a5,0x7fc03
800029a0:	66478793          	addi	a5,a5,1636 # ffc06000 <_end+0x7fbffc08>
800029a4:	00004717          	auipc	a4,0x4
800029a8:	a4f72823          	sw	a5,-1456(a4) # 800063f4 <freelist_head>
800029ac:	7fc04797          	auipc	a5,0x7fc04
800029b0:	84478793          	addi	a5,a5,-1980 # ffc061f0 <_end+0x7fbffdf8>
800029b4:	00004717          	auipc	a4,0x4
800029b8:	a2f72e23          	sw	a5,-1476(a4) # 800063f0 <freelist_tail>
800029bc:	00080eb7          	lui	t4,0x80
800029c0:	00003717          	auipc	a4,0x3
800029c4:	64070713          	addi	a4,a4,1600 # 80006000 <freelist_nodes>
800029c8:	00004f17          	auipc	t5,0x4
800029cc:	830f0f13          	addi	t5,t5,-2000 # 800061f8 <user_mapping>
800029d0:	200005b7          	lui	a1,0x20000
800029d4:	02d00793          	li	a5,45
800029d8:	03fe8e93          	addi	t4,t4,63 # 8003f <reset_vector-0x7ff7ffc1>
800029dc:	008e0e13          	addi	t3,t3,8 # 7fc00008 <reset_vector-0x3ffff8>
800029e0:	0017d813          	srli	a6,a5,0x1
800029e4:	01d786b3          	add	a3,a5,t4
800029e8:	00f847b3          	xor	a5,a6,a5
800029ec:	01c70333          	add	t1,a4,t3
800029f0:	00f5e893          	ori	a7,a1,15
800029f4:	00c69693          	slli	a3,a3,0xc
800029f8:	00579793          	slli	a5,a5,0x5
800029fc:	00d72023          	sw	a3,0(a4)
80002a00:	00672223          	sw	t1,4(a4)
80002a04:	0207f793          	andi	a5,a5,32
80002a08:	01162023          	sw	a7,0(a2)
80002a0c:	00870713          	addi	a4,a4,8
80002a10:	00f867b3          	or	a5,a6,a5
80002a14:	40058593          	addi	a1,a1,1024 # 20000400 <reset_vector-0x5ffffc00>
80002a18:	00460613          	addi	a2,a2,4
80002a1c:	fcef12e3          	bne	t5,a4,800029e0 <vm_boot+0xd0>
80002a20:	00050413          	mv	s0,a0
80002a24:	09000613          	li	a2,144
80002a28:	00000593          	li	a1,0
80002a2c:	00010513          	mv	a0,sp
80002a30:	00003797          	auipc	a5,0x3
80002a34:	7c07a223          	sw	zero,1988(a5) # 800061f4 <freelist_nodes+0x1f4>
80002a38:	e20ff0ef          	jal	80002058 <memset>
80002a3c:	800007b7          	lui	a5,0x80000
80002a40:	00f40433          	add	s0,s0,a5
80002a44:	00010513          	mv	a0,sp
80002a48:	08812223          	sw	s0,132(sp)
80002a4c:	ffffd317          	auipc	t1,0xffffd
80002a50:	5f0300e7          	jalr	t1,1520 # 8000003c <pop_tf>
80002a54:	09c12083          	lw	ra,156(sp)
80002a58:	09812403          	lw	s0,152(sp)
80002a5c:	0a010113          	addi	sp,sp,160
80002a60:	00008067          	ret
80002a64:	0e9a97b7          	lui	a5,0xe9a9
80002a68:	00080637          	lui	a2,0x80
80002a6c:	47c78793          	addi	a5,a5,1148 # e9a947c <reset_vector-0x71656b84>
80002a70:	ffc60613          	addi	a2,a2,-4 # 7fffc <reset_vector-0x7ff80004>
80002a74:	800005b7          	lui	a1,0x80000
80002a78:	00c7f733          	and	a4,a5,a2
80002a7c:	0017f693          	andi	a3,a5,1
80002a80:	00b70733          	add	a4,a4,a1
80002a84:	00068e63          	beqz	a3,80002aa0 <vm_boot+0x190>
80002a88:	0007202f          	amoadd.w	zero,zero,(a4)
80002a8c:	0017d793          	srli	a5,a5,0x1
80002a90:	00c7f733          	and	a4,a5,a2
80002a94:	0017f693          	andi	a3,a5,1
80002a98:	00b70733          	add	a4,a4,a1
80002a9c:	fe0696e3          	bnez	a3,80002a88 <vm_boot+0x178>
80002aa0:	00072003          	lw	zero,0(a4)
80002aa4:	0017d793          	srli	a5,a5,0x1
80002aa8:	fe9ff06f          	j	80002a90 <vm_boot+0x180>
80002aac:	0000                	unimp
80002aae:	0000                	unimp

80002ab0 <userstart>:
80002ab0:	00002517          	auipc	a0,0x2
80002ab4:	71c50513          	addi	a0,a0,1820 # 800051cc <begin_signature+0x21cc>
80002ab8:	004005ef          	jal	a1,80002abc <userstart+0xc>
80002abc:	40b50533          	sub	a0,a0,a1
80002ac0:	00002eb7          	lui	t4,0x2
80002ac4:	710e8e93          	addi	t4,t4,1808 # 2710 <reset_vector-0x7fffd8f0>
80002ac8:	00200e13          	li	t3,2
80002acc:	03d51463          	bne	a0,t4,80002af4 <fail>

80002ad0 <test_3>:
80002ad0:	ffffe517          	auipc	a0,0xffffe
80002ad4:	8fc50513          	addi	a0,a0,-1796 # 800003cc <trap_entry+0x308>
80002ad8:	004005ef          	jal	a1,80002adc <test_3+0xc>
80002adc:	40b50533          	sub	a0,a0,a1
80002ae0:	ffffeeb7          	lui	t4,0xffffe
80002ae4:	8f0e8e93          	addi	t4,t4,-1808 # ffffd8f0 <_end+0x7fff74f8>
80002ae8:	00300e13          	li	t3,3
80002aec:	01d51463          	bne	a0,t4,80002af4 <fail>
80002af0:	01c01a63          	bne	zero,t3,80002b04 <pass>

80002af4 <fail>:
80002af4:	001e1513          	slli	a0,t3,0x1
80002af8:	00050063          	beqz	a0,80002af8 <fail+0x4>
80002afc:	00156513          	ori	a0,a0,1
80002b00:	00000073          	ecall

80002b04 <pass>:
80002b04:	00100513          	li	a0,1
80002b08:	00000073          	ecall
80002b0c:	c0001073          	unimp
