
rv64ud-p-fcvt_w:     file format elf64-littleriscv


Disassembly of section .text.init:

0000000080000000 <_start>:
    80000000:	04c0006f          	j	8000004c <reset_vector>

0000000080000004 <trap_vector>:
    80000004:	34202f73          	csrr	t5,mcause
    80000008:	00800f93          	li	t6,8
    8000000c:	03ff0a63          	beq	t5,t6,80000040 <write_tohost>
    80000010:	00900f93          	li	t6,9
    80000014:	03ff0663          	beq	t5,t6,80000040 <write_tohost>
    80000018:	00b00f93          	li	t6,11
    8000001c:	03ff0263          	beq	t5,t6,80000040 <write_tohost>
    80000020:	80000f17          	auipc	t5,0x80000
    80000024:	fe0f0f13          	addi	t5,t5,-32 # 0 <_start-0x80000000>
    80000028:	000f0463          	beqz	t5,80000030 <trap_vector+0x2c>
    8000002c:	000f0067          	jr	t5
    80000030:	34202f73          	csrr	t5,mcause
    80000034:	000f5463          	bgez	t5,8000003c <handle_exception>
    80000038:	0040006f          	j	8000003c <handle_exception>

000000008000003c <handle_exception>:
    8000003c:	539e6e13          	ori	t3,t3,1337

0000000080000040 <write_tohost>:
    80000040:	00001f17          	auipc	t5,0x1
    80000044:	fdcf2023          	sw	t3,-64(t5) # 80001000 <tohost>
    80000048:	ff9ff06f          	j	80000040 <write_tohost>

000000008000004c <reset_vector>:
    8000004c:	f1402573          	csrr	a0,mhartid
    80000050:	00051063          	bnez	a0,80000050 <reset_vector+0x4>
    80000054:	30102573          	csrr	a0,misa
    80000058:	00054863          	bltz	a0,80000068 <reset_vector+0x1c>
    8000005c:	0ff0000f          	fence
    80000060:	00100e13          	li	t3,1
    80000064:	00000073          	ecall
    80000068:	00000e13          	li	t3,0
    8000006c:	00000297          	auipc	t0,0x0
    80000070:	f9828293          	addi	t0,t0,-104 # 80000004 <trap_vector>
    80000074:	30529073          	csrw	mtvec,t0
    80000078:	30205073          	csrwi	medeleg,0
    8000007c:	30305073          	csrwi	mideleg,0
    80000080:	30405073          	csrwi	mie,0
    80000084:	80000297          	auipc	t0,0x80000
    80000088:	f7c28293          	addi	t0,t0,-132 # 0 <_start-0x80000000>
    8000008c:	00028c63          	beqz	t0,800000a4 <reset_vector+0x58>
    80000090:	10529073          	csrw	stvec,t0
    80000094:	1ab00293          	li	t0,427
    80000098:	30229073          	csrw	medeleg,t0
    8000009c:	30202373          	csrr	t1,medeleg
    800000a0:	f8629ee3          	bne	t0,t1,8000003c <handle_exception>
    800000a4:	30005073          	csrwi	mstatus,0
    800000a8:	00002537          	lui	a0,0x2
    800000ac:	30052073          	csrs	mstatus,a0
    800000b0:	00305073          	csrwi	fcsr,0
    800000b4:	00000297          	auipc	t0,0x0
    800000b8:	01428293          	addi	t0,t0,20 # 800000c8 <test_2>
    800000bc:	34129073          	csrw	mepc,t0
    800000c0:	f1402573          	csrr	a0,mhartid
    800000c4:	30200073          	mret

00000000800000c8 <test_2>:
    800000c8:	00200e13          	li	t3,2
    800000cc:	00002517          	auipc	a0,0x2
    800000d0:	f3450513          	addi	a0,a0,-204 # 80002000 <test_2_data>
    800000d4:	00053007          	fld	ft0,0(a0)
    800000d8:	00853087          	fld	ft1,8(a0)
    800000dc:	01053107          	fld	ft2,16(a0)
    800000e0:	01853683          	ld	a3,24(a0)
    800000e4:	c2001553          	fcvt.w.d	a0,ft0,rtz
    800000e8:	001015f3          	fsflags	a1,zero
    800000ec:	00100613          	li	a2,1
    800000f0:	02d512e3          	bne	a0,a3,80000914 <fail>
    800000f4:	02c590e3          	bne	a1,a2,80000914 <fail>

00000000800000f8 <test_3>:
    800000f8:	00300e13          	li	t3,3
    800000fc:	00002517          	auipc	a0,0x2
    80000100:	f2450513          	addi	a0,a0,-220 # 80002020 <test_3_data>
    80000104:	00053007          	fld	ft0,0(a0)
    80000108:	00853087          	fld	ft1,8(a0)
    8000010c:	01053107          	fld	ft2,16(a0)
    80000110:	01853683          	ld	a3,24(a0)
    80000114:	c2001553          	fcvt.w.d	a0,ft0,rtz
    80000118:	001015f3          	fsflags	a1,zero
    8000011c:	00000613          	li	a2,0
    80000120:	7ed51a63          	bne	a0,a3,80000914 <fail>
    80000124:	7ec59863          	bne	a1,a2,80000914 <fail>

0000000080000128 <test_4>:
    80000128:	00400e13          	li	t3,4
    8000012c:	00002517          	auipc	a0,0x2
    80000130:	f1450513          	addi	a0,a0,-236 # 80002040 <test_4_data>
    80000134:	00053007          	fld	ft0,0(a0)
    80000138:	00853087          	fld	ft1,8(a0)
    8000013c:	01053107          	fld	ft2,16(a0)
    80000140:	01853683          	ld	a3,24(a0)
    80000144:	c2001553          	fcvt.w.d	a0,ft0,rtz
    80000148:	001015f3          	fsflags	a1,zero
    8000014c:	00100613          	li	a2,1
    80000150:	7cd51263          	bne	a0,a3,80000914 <fail>
    80000154:	7cc59063          	bne	a1,a2,80000914 <fail>

0000000080000158 <test_5>:
    80000158:	00500e13          	li	t3,5
    8000015c:	00002517          	auipc	a0,0x2
    80000160:	f0450513          	addi	a0,a0,-252 # 80002060 <test_5_data>
    80000164:	00053007          	fld	ft0,0(a0)
    80000168:	00853087          	fld	ft1,8(a0)
    8000016c:	01053107          	fld	ft2,16(a0)
    80000170:	01853683          	ld	a3,24(a0)
    80000174:	c2001553          	fcvt.w.d	a0,ft0,rtz
    80000178:	001015f3          	fsflags	a1,zero
    8000017c:	00100613          	li	a2,1
    80000180:	78d51a63          	bne	a0,a3,80000914 <fail>
    80000184:	78c59863          	bne	a1,a2,80000914 <fail>

0000000080000188 <test_6>:
    80000188:	00600e13          	li	t3,6
    8000018c:	00002517          	auipc	a0,0x2
    80000190:	ef450513          	addi	a0,a0,-268 # 80002080 <test_6_data>
    80000194:	00053007          	fld	ft0,0(a0)
    80000198:	00853087          	fld	ft1,8(a0)
    8000019c:	01053107          	fld	ft2,16(a0)
    800001a0:	01853683          	ld	a3,24(a0)
    800001a4:	c2001553          	fcvt.w.d	a0,ft0,rtz
    800001a8:	001015f3          	fsflags	a1,zero
    800001ac:	00000613          	li	a2,0
    800001b0:	76d51263          	bne	a0,a3,80000914 <fail>
    800001b4:	76c59063          	bne	a1,a2,80000914 <fail>

00000000800001b8 <test_7>:
    800001b8:	00700e13          	li	t3,7
    800001bc:	00002517          	auipc	a0,0x2
    800001c0:	ee450513          	addi	a0,a0,-284 # 800020a0 <test_7_data>
    800001c4:	00053007          	fld	ft0,0(a0)
    800001c8:	00853087          	fld	ft1,8(a0)
    800001cc:	01053107          	fld	ft2,16(a0)
    800001d0:	01853683          	ld	a3,24(a0)
    800001d4:	c2001553          	fcvt.w.d	a0,ft0,rtz
    800001d8:	001015f3          	fsflags	a1,zero
    800001dc:	00100613          	li	a2,1
    800001e0:	72d51a63          	bne	a0,a3,80000914 <fail>
    800001e4:	72c59863          	bne	a1,a2,80000914 <fail>

00000000800001e8 <test_8>:
    800001e8:	00800e13          	li	t3,8
    800001ec:	00002517          	auipc	a0,0x2
    800001f0:	ed450513          	addi	a0,a0,-300 # 800020c0 <test_8_data>
    800001f4:	00053007          	fld	ft0,0(a0)
    800001f8:	00853087          	fld	ft1,8(a0)
    800001fc:	01053107          	fld	ft2,16(a0)
    80000200:	01853683          	ld	a3,24(a0)
    80000204:	c2001553          	fcvt.w.d	a0,ft0,rtz
    80000208:	001015f3          	fsflags	a1,zero
    8000020c:	01000613          	li	a2,16
    80000210:	70d51263          	bne	a0,a3,80000914 <fail>
    80000214:	70c59063          	bne	a1,a2,80000914 <fail>

0000000080000218 <test_9>:
    80000218:	00900e13          	li	t3,9
    8000021c:	00002517          	auipc	a0,0x2
    80000220:	ec450513          	addi	a0,a0,-316 # 800020e0 <test_9_data>
    80000224:	00053007          	fld	ft0,0(a0)
    80000228:	00853087          	fld	ft1,8(a0)
    8000022c:	01053107          	fld	ft2,16(a0)
    80000230:	01853683          	ld	a3,24(a0)
    80000234:	c2001553          	fcvt.w.d	a0,ft0,rtz
    80000238:	001015f3          	fsflags	a1,zero
    8000023c:	01000613          	li	a2,16
    80000240:	6cd51a63          	bne	a0,a3,80000914 <fail>
    80000244:	6cc59863          	bne	a1,a2,80000914 <fail>

0000000080000248 <test_12>:
    80000248:	00c00e13          	li	t3,12
    8000024c:	00002517          	auipc	a0,0x2
    80000250:	eb450513          	addi	a0,a0,-332 # 80002100 <test_12_data>
    80000254:	00053007          	fld	ft0,0(a0)
    80000258:	00853087          	fld	ft1,8(a0)
    8000025c:	01053107          	fld	ft2,16(a0)
    80000260:	01853683          	ld	a3,24(a0)
    80000264:	c2101553          	fcvt.wu.d	a0,ft0,rtz
    80000268:	001015f3          	fsflags	a1,zero
    8000026c:	01000613          	li	a2,16
    80000270:	6ad51263          	bne	a0,a3,80000914 <fail>
    80000274:	6ac59063          	bne	a1,a2,80000914 <fail>

0000000080000278 <test_13>:
    80000278:	00d00e13          	li	t3,13
    8000027c:	00002517          	auipc	a0,0x2
    80000280:	ea450513          	addi	a0,a0,-348 # 80002120 <test_13_data>
    80000284:	00053007          	fld	ft0,0(a0)
    80000288:	00853087          	fld	ft1,8(a0)
    8000028c:	01053107          	fld	ft2,16(a0)
    80000290:	01853683          	ld	a3,24(a0)
    80000294:	c2101553          	fcvt.wu.d	a0,ft0,rtz
    80000298:	001015f3          	fsflags	a1,zero
    8000029c:	01000613          	li	a2,16
    800002a0:	66d51a63          	bne	a0,a3,80000914 <fail>
    800002a4:	66c59863          	bne	a1,a2,80000914 <fail>

00000000800002a8 <test_14>:
    800002a8:	00e00e13          	li	t3,14
    800002ac:	00002517          	auipc	a0,0x2
    800002b0:	e9450513          	addi	a0,a0,-364 # 80002140 <test_14_data>
    800002b4:	00053007          	fld	ft0,0(a0)
    800002b8:	00853087          	fld	ft1,8(a0)
    800002bc:	01053107          	fld	ft2,16(a0)
    800002c0:	01853683          	ld	a3,24(a0)
    800002c4:	c2101553          	fcvt.wu.d	a0,ft0,rtz
    800002c8:	001015f3          	fsflags	a1,zero
    800002cc:	00100613          	li	a2,1
    800002d0:	64d51263          	bne	a0,a3,80000914 <fail>
    800002d4:	64c59063          	bne	a1,a2,80000914 <fail>

00000000800002d8 <test_15>:
    800002d8:	00f00e13          	li	t3,15
    800002dc:	00002517          	auipc	a0,0x2
    800002e0:	e8450513          	addi	a0,a0,-380 # 80002160 <test_15_data>
    800002e4:	00053007          	fld	ft0,0(a0)
    800002e8:	00853087          	fld	ft1,8(a0)
    800002ec:	01053107          	fld	ft2,16(a0)
    800002f0:	01853683          	ld	a3,24(a0)
    800002f4:	c2101553          	fcvt.wu.d	a0,ft0,rtz
    800002f8:	001015f3          	fsflags	a1,zero
    800002fc:	00100613          	li	a2,1
    80000300:	60d51a63          	bne	a0,a3,80000914 <fail>
    80000304:	60c59863          	bne	a1,a2,80000914 <fail>

0000000080000308 <test_16>:
    80000308:	01000e13          	li	t3,16
    8000030c:	00002517          	auipc	a0,0x2
    80000310:	e7450513          	addi	a0,a0,-396 # 80002180 <test_16_data>
    80000314:	00053007          	fld	ft0,0(a0)
    80000318:	00853087          	fld	ft1,8(a0)
    8000031c:	01053107          	fld	ft2,16(a0)
    80000320:	01853683          	ld	a3,24(a0)
    80000324:	c2101553          	fcvt.wu.d	a0,ft0,rtz
    80000328:	001015f3          	fsflags	a1,zero
    8000032c:	00000613          	li	a2,0
    80000330:	5ed51263          	bne	a0,a3,80000914 <fail>
    80000334:	5ec59063          	bne	a1,a2,80000914 <fail>

0000000080000338 <test_17>:
    80000338:	01100e13          	li	t3,17
    8000033c:	00002517          	auipc	a0,0x2
    80000340:	e6450513          	addi	a0,a0,-412 # 800021a0 <test_17_data>
    80000344:	00053007          	fld	ft0,0(a0)
    80000348:	00853087          	fld	ft1,8(a0)
    8000034c:	01053107          	fld	ft2,16(a0)
    80000350:	01853683          	ld	a3,24(a0)
    80000354:	c2101553          	fcvt.wu.d	a0,ft0,rtz
    80000358:	001015f3          	fsflags	a1,zero
    8000035c:	00100613          	li	a2,1
    80000360:	5ad51a63          	bne	a0,a3,80000914 <fail>
    80000364:	5ac59863          	bne	a1,a2,80000914 <fail>

0000000080000368 <test_18>:
    80000368:	01200e13          	li	t3,18
    8000036c:	00002517          	auipc	a0,0x2
    80000370:	e5450513          	addi	a0,a0,-428 # 800021c0 <test_18_data>
    80000374:	00053007          	fld	ft0,0(a0)
    80000378:	00853087          	fld	ft1,8(a0)
    8000037c:	01053107          	fld	ft2,16(a0)
    80000380:	01853683          	ld	a3,24(a0)
    80000384:	c2101553          	fcvt.wu.d	a0,ft0,rtz
    80000388:	001015f3          	fsflags	a1,zero
    8000038c:	01000613          	li	a2,16
    80000390:	58d51263          	bne	a0,a3,80000914 <fail>
    80000394:	58c59063          	bne	a1,a2,80000914 <fail>

0000000080000398 <test_19>:
    80000398:	01300e13          	li	t3,19
    8000039c:	00002517          	auipc	a0,0x2
    800003a0:	e4450513          	addi	a0,a0,-444 # 800021e0 <test_19_data>
    800003a4:	00053007          	fld	ft0,0(a0)
    800003a8:	00853087          	fld	ft1,8(a0)
    800003ac:	01053107          	fld	ft2,16(a0)
    800003b0:	01853683          	ld	a3,24(a0)
    800003b4:	c2101553          	fcvt.wu.d	a0,ft0,rtz
    800003b8:	001015f3          	fsflags	a1,zero
    800003bc:	00000613          	li	a2,0
    800003c0:	54d51a63          	bne	a0,a3,80000914 <fail>
    800003c4:	54c59863          	bne	a1,a2,80000914 <fail>

00000000800003c8 <test_22>:
    800003c8:	01600e13          	li	t3,22
    800003cc:	00002517          	auipc	a0,0x2
    800003d0:	e3450513          	addi	a0,a0,-460 # 80002200 <test_22_data>
    800003d4:	00053007          	fld	ft0,0(a0)
    800003d8:	00853087          	fld	ft1,8(a0)
    800003dc:	01053107          	fld	ft2,16(a0)
    800003e0:	01853683          	ld	a3,24(a0)
    800003e4:	c2201553          	fcvt.l.d	a0,ft0,rtz
    800003e8:	001015f3          	fsflags	a1,zero
    800003ec:	00100613          	li	a2,1
    800003f0:	52d51263          	bne	a0,a3,80000914 <fail>
    800003f4:	52c59063          	bne	a1,a2,80000914 <fail>

00000000800003f8 <test_23>:
    800003f8:	01700e13          	li	t3,23
    800003fc:	00002517          	auipc	a0,0x2
    80000400:	e2450513          	addi	a0,a0,-476 # 80002220 <test_23_data>
    80000404:	00053007          	fld	ft0,0(a0)
    80000408:	00853087          	fld	ft1,8(a0)
    8000040c:	01053107          	fld	ft2,16(a0)
    80000410:	01853683          	ld	a3,24(a0)
    80000414:	c2201553          	fcvt.l.d	a0,ft0,rtz
    80000418:	001015f3          	fsflags	a1,zero
    8000041c:	00000613          	li	a2,0
    80000420:	4ed51a63          	bne	a0,a3,80000914 <fail>
    80000424:	4ec59863          	bne	a1,a2,80000914 <fail>

0000000080000428 <test_24>:
    80000428:	01800e13          	li	t3,24
    8000042c:	00002517          	auipc	a0,0x2
    80000430:	e1450513          	addi	a0,a0,-492 # 80002240 <test_24_data>
    80000434:	00053007          	fld	ft0,0(a0)
    80000438:	00853087          	fld	ft1,8(a0)
    8000043c:	01053107          	fld	ft2,16(a0)
    80000440:	01853683          	ld	a3,24(a0)
    80000444:	c2201553          	fcvt.l.d	a0,ft0,rtz
    80000448:	001015f3          	fsflags	a1,zero
    8000044c:	00100613          	li	a2,1
    80000450:	4cd51263          	bne	a0,a3,80000914 <fail>
    80000454:	4cc59063          	bne	a1,a2,80000914 <fail>

0000000080000458 <test_25>:
    80000458:	01900e13          	li	t3,25
    8000045c:	00002517          	auipc	a0,0x2
    80000460:	e0450513          	addi	a0,a0,-508 # 80002260 <test_25_data>
    80000464:	00053007          	fld	ft0,0(a0)
    80000468:	00853087          	fld	ft1,8(a0)
    8000046c:	01053107          	fld	ft2,16(a0)
    80000470:	01853683          	ld	a3,24(a0)
    80000474:	c2201553          	fcvt.l.d	a0,ft0,rtz
    80000478:	001015f3          	fsflags	a1,zero
    8000047c:	00100613          	li	a2,1
    80000480:	48d51a63          	bne	a0,a3,80000914 <fail>
    80000484:	48c59863          	bne	a1,a2,80000914 <fail>

0000000080000488 <test_26>:
    80000488:	01a00e13          	li	t3,26
    8000048c:	00002517          	auipc	a0,0x2
    80000490:	df450513          	addi	a0,a0,-524 # 80002280 <test_26_data>
    80000494:	00053007          	fld	ft0,0(a0)
    80000498:	00853087          	fld	ft1,8(a0)
    8000049c:	01053107          	fld	ft2,16(a0)
    800004a0:	01853683          	ld	a3,24(a0)
    800004a4:	c2201553          	fcvt.l.d	a0,ft0,rtz
    800004a8:	001015f3          	fsflags	a1,zero
    800004ac:	00000613          	li	a2,0
    800004b0:	46d51263          	bne	a0,a3,80000914 <fail>
    800004b4:	46c59063          	bne	a1,a2,80000914 <fail>

00000000800004b8 <test_27>:
    800004b8:	01b00e13          	li	t3,27
    800004bc:	00002517          	auipc	a0,0x2
    800004c0:	de450513          	addi	a0,a0,-540 # 800022a0 <test_27_data>
    800004c4:	00053007          	fld	ft0,0(a0)
    800004c8:	00853087          	fld	ft1,8(a0)
    800004cc:	01053107          	fld	ft2,16(a0)
    800004d0:	01853683          	ld	a3,24(a0)
    800004d4:	c2201553          	fcvt.l.d	a0,ft0,rtz
    800004d8:	001015f3          	fsflags	a1,zero
    800004dc:	00100613          	li	a2,1
    800004e0:	42d51a63          	bne	a0,a3,80000914 <fail>
    800004e4:	42c59863          	bne	a1,a2,80000914 <fail>

00000000800004e8 <test_28>:
    800004e8:	01c00e13          	li	t3,28
    800004ec:	00002517          	auipc	a0,0x2
    800004f0:	dd450513          	addi	a0,a0,-556 # 800022c0 <test_28_data>
    800004f4:	00053007          	fld	ft0,0(a0)
    800004f8:	00853087          	fld	ft1,8(a0)
    800004fc:	01053107          	fld	ft2,16(a0)
    80000500:	01853683          	ld	a3,24(a0)
    80000504:	c2201553          	fcvt.l.d	a0,ft0,rtz
    80000508:	001015f3          	fsflags	a1,zero
    8000050c:	00000613          	li	a2,0
    80000510:	40d51263          	bne	a0,a3,80000914 <fail>
    80000514:	40c59063          	bne	a1,a2,80000914 <fail>

0000000080000518 <test_29>:
    80000518:	01d00e13          	li	t3,29
    8000051c:	00002517          	auipc	a0,0x2
    80000520:	dc450513          	addi	a0,a0,-572 # 800022e0 <test_29_data>
    80000524:	00053007          	fld	ft0,0(a0)
    80000528:	00853087          	fld	ft1,8(a0)
    8000052c:	01053107          	fld	ft2,16(a0)
    80000530:	01853683          	ld	a3,24(a0)
    80000534:	c2201553          	fcvt.l.d	a0,ft0,rtz
    80000538:	001015f3          	fsflags	a1,zero
    8000053c:	00000613          	li	a2,0
    80000540:	3cd51a63          	bne	a0,a3,80000914 <fail>
    80000544:	3cc59863          	bne	a1,a2,80000914 <fail>

0000000080000548 <test_20>:
    80000548:	01400e13          	li	t3,20
    8000054c:	00002517          	auipc	a0,0x2
    80000550:	db450513          	addi	a0,a0,-588 # 80002300 <test_20_data>
    80000554:	00053007          	fld	ft0,0(a0)
    80000558:	00853087          	fld	ft1,8(a0)
    8000055c:	01053107          	fld	ft2,16(a0)
    80000560:	01853683          	ld	a3,24(a0)
    80000564:	c2201553          	fcvt.l.d	a0,ft0,rtz
    80000568:	001015f3          	fsflags	a1,zero
    8000056c:	01000613          	li	a2,16
    80000570:	3ad51263          	bne	a0,a3,80000914 <fail>
    80000574:	3ac59063          	bne	a1,a2,80000914 <fail>

0000000080000578 <test_21>:
    80000578:	01500e13          	li	t3,21
    8000057c:	00002517          	auipc	a0,0x2
    80000580:	da450513          	addi	a0,a0,-604 # 80002320 <test_21_data>
    80000584:	00053007          	fld	ft0,0(a0)
    80000588:	00853087          	fld	ft1,8(a0)
    8000058c:	01053107          	fld	ft2,16(a0)
    80000590:	01853683          	ld	a3,24(a0)
    80000594:	c2201553          	fcvt.l.d	a0,ft0,rtz
    80000598:	001015f3          	fsflags	a1,zero
    8000059c:	01000613          	li	a2,16
    800005a0:	36d51a63          	bne	a0,a3,80000914 <fail>
    800005a4:	36c59863          	bne	a1,a2,80000914 <fail>

00000000800005a8 <test_32>:
    800005a8:	02000e13          	li	t3,32
    800005ac:	00002517          	auipc	a0,0x2
    800005b0:	d9450513          	addi	a0,a0,-620 # 80002340 <test_32_data>
    800005b4:	00053007          	fld	ft0,0(a0)
    800005b8:	00853087          	fld	ft1,8(a0)
    800005bc:	01053107          	fld	ft2,16(a0)
    800005c0:	01853683          	ld	a3,24(a0)
    800005c4:	c2301553          	fcvt.lu.d	a0,ft0,rtz
    800005c8:	001015f3          	fsflags	a1,zero
    800005cc:	01000613          	li	a2,16
    800005d0:	34d51263          	bne	a0,a3,80000914 <fail>
    800005d4:	34c59063          	bne	a1,a2,80000914 <fail>

00000000800005d8 <test_33>:
    800005d8:	02100e13          	li	t3,33
    800005dc:	00002517          	auipc	a0,0x2
    800005e0:	d8450513          	addi	a0,a0,-636 # 80002360 <test_33_data>
    800005e4:	00053007          	fld	ft0,0(a0)
    800005e8:	00853087          	fld	ft1,8(a0)
    800005ec:	01053107          	fld	ft2,16(a0)
    800005f0:	01853683          	ld	a3,24(a0)
    800005f4:	c2301553          	fcvt.lu.d	a0,ft0,rtz
    800005f8:	001015f3          	fsflags	a1,zero
    800005fc:	01000613          	li	a2,16
    80000600:	30d51a63          	bne	a0,a3,80000914 <fail>
    80000604:	30c59863          	bne	a1,a2,80000914 <fail>

0000000080000608 <test_34>:
    80000608:	02200e13          	li	t3,34
    8000060c:	00002517          	auipc	a0,0x2
    80000610:	d7450513          	addi	a0,a0,-652 # 80002380 <test_34_data>
    80000614:	00053007          	fld	ft0,0(a0)
    80000618:	00853087          	fld	ft1,8(a0)
    8000061c:	01053107          	fld	ft2,16(a0)
    80000620:	01853683          	ld	a3,24(a0)
    80000624:	c2301553          	fcvt.lu.d	a0,ft0,rtz
    80000628:	001015f3          	fsflags	a1,zero
    8000062c:	00100613          	li	a2,1
    80000630:	2ed51263          	bne	a0,a3,80000914 <fail>
    80000634:	2ec59063          	bne	a1,a2,80000914 <fail>

0000000080000638 <test_35>:
    80000638:	02300e13          	li	t3,35
    8000063c:	00002517          	auipc	a0,0x2
    80000640:	d6450513          	addi	a0,a0,-668 # 800023a0 <test_35_data>
    80000644:	00053007          	fld	ft0,0(a0)
    80000648:	00853087          	fld	ft1,8(a0)
    8000064c:	01053107          	fld	ft2,16(a0)
    80000650:	01853683          	ld	a3,24(a0)
    80000654:	c2301553          	fcvt.lu.d	a0,ft0,rtz
    80000658:	001015f3          	fsflags	a1,zero
    8000065c:	00100613          	li	a2,1
    80000660:	2ad51a63          	bne	a0,a3,80000914 <fail>
    80000664:	2ac59863          	bne	a1,a2,80000914 <fail>

0000000080000668 <test_36>:
    80000668:	02400e13          	li	t3,36
    8000066c:	00002517          	auipc	a0,0x2
    80000670:	d5450513          	addi	a0,a0,-684 # 800023c0 <test_36_data>
    80000674:	00053007          	fld	ft0,0(a0)
    80000678:	00853087          	fld	ft1,8(a0)
    8000067c:	01053107          	fld	ft2,16(a0)
    80000680:	01853683          	ld	a3,24(a0)
    80000684:	c2301553          	fcvt.lu.d	a0,ft0,rtz
    80000688:	001015f3          	fsflags	a1,zero
    8000068c:	00000613          	li	a2,0
    80000690:	28d51263          	bne	a0,a3,80000914 <fail>
    80000694:	28c59063          	bne	a1,a2,80000914 <fail>

0000000080000698 <test_37>:
    80000698:	02500e13          	li	t3,37
    8000069c:	00002517          	auipc	a0,0x2
    800006a0:	d4450513          	addi	a0,a0,-700 # 800023e0 <test_37_data>
    800006a4:	00053007          	fld	ft0,0(a0)
    800006a8:	00853087          	fld	ft1,8(a0)
    800006ac:	01053107          	fld	ft2,16(a0)
    800006b0:	01853683          	ld	a3,24(a0)
    800006b4:	c2301553          	fcvt.lu.d	a0,ft0,rtz
    800006b8:	001015f3          	fsflags	a1,zero
    800006bc:	00100613          	li	a2,1
    800006c0:	24d51a63          	bne	a0,a3,80000914 <fail>
    800006c4:	24c59863          	bne	a1,a2,80000914 <fail>

00000000800006c8 <test_38>:
    800006c8:	02600e13          	li	t3,38
    800006cc:	00002517          	auipc	a0,0x2
    800006d0:	d3450513          	addi	a0,a0,-716 # 80002400 <test_38_data>
    800006d4:	00053007          	fld	ft0,0(a0)
    800006d8:	00853087          	fld	ft1,8(a0)
    800006dc:	01053107          	fld	ft2,16(a0)
    800006e0:	01853683          	ld	a3,24(a0)
    800006e4:	c2301553          	fcvt.lu.d	a0,ft0,rtz
    800006e8:	001015f3          	fsflags	a1,zero
    800006ec:	01000613          	li	a2,16
    800006f0:	22d51263          	bne	a0,a3,80000914 <fail>
    800006f4:	22c59063          	bne	a1,a2,80000914 <fail>

00000000800006f8 <test_39>:
    800006f8:	02700e13          	li	t3,39
    800006fc:	00002517          	auipc	a0,0x2
    80000700:	d2450513          	addi	a0,a0,-732 # 80002420 <test_39_data>
    80000704:	00053007          	fld	ft0,0(a0)
    80000708:	00853087          	fld	ft1,8(a0)
    8000070c:	01053107          	fld	ft2,16(a0)
    80000710:	01853683          	ld	a3,24(a0)
    80000714:	c2301553          	fcvt.lu.d	a0,ft0,rtz
    80000718:	001015f3          	fsflags	a1,zero
    8000071c:	00000613          	li	a2,0
    80000720:	1ed51a63          	bne	a0,a3,80000914 <fail>
    80000724:	1ec59863          	bne	a1,a2,80000914 <fail>

0000000080000728 <test_42>:
    80000728:	00002097          	auipc	ra,0x2
    8000072c:	d2808093          	addi	ra,ra,-728 # 80002450 <tdat_d>
    80000730:	0000b087          	fld	ft1,0(ra)
    80000734:	c200f0d3          	fcvt.w.d	ra,ft1
    80000738:	80000eb7          	lui	t4,0x80000
    8000073c:	fffe8e9b          	addiw	t4,t4,-1
    80000740:	02a00e13          	li	t3,42
    80000744:	1dd09863          	bne	ra,t4,80000914 <fail>

0000000080000748 <test_43>:
    80000748:	00002097          	auipc	ra,0x2
    8000074c:	d0808093          	addi	ra,ra,-760 # 80002450 <tdat_d>
    80000750:	0000b087          	fld	ft1,0(ra)
    80000754:	c220f0d3          	fcvt.l.d	ra,ft1
    80000758:	fff00e9b          	addiw	t4,zero,-1
    8000075c:	03fe9e93          	slli	t4,t4,0x3f
    80000760:	fffe8e93          	addi	t4,t4,-1 # ffffffff7fffffff <_end+0xfffffffeffffdb8f>
    80000764:	02b00e13          	li	t3,43
    80000768:	1bd09663          	bne	ra,t4,80000914 <fail>

000000008000076c <test_44>:
    8000076c:	00002097          	auipc	ra,0x2
    80000770:	ce408093          	addi	ra,ra,-796 # 80002450 <tdat_d>
    80000774:	0100b087          	fld	ft1,16(ra)
    80000778:	c200f0d3          	fcvt.w.d	ra,ft1
    8000077c:	80000eb7          	lui	t4,0x80000
    80000780:	02c00e13          	li	t3,44
    80000784:	19d09863          	bne	ra,t4,80000914 <fail>

0000000080000788 <test_45>:
    80000788:	00002097          	auipc	ra,0x2
    8000078c:	cc808093          	addi	ra,ra,-824 # 80002450 <tdat_d>
    80000790:	0100b087          	fld	ft1,16(ra)
    80000794:	c220f0d3          	fcvt.l.d	ra,ft1
    80000798:	fff00e9b          	addiw	t4,zero,-1
    8000079c:	03fe9e93          	slli	t4,t4,0x3f
    800007a0:	02d00e13          	li	t3,45
    800007a4:	17d09863          	bne	ra,t4,80000914 <fail>

00000000800007a8 <test_52>:
    800007a8:	00002097          	auipc	ra,0x2
    800007ac:	ca808093          	addi	ra,ra,-856 # 80002450 <tdat_d>
    800007b0:	0080b087          	fld	ft1,8(ra)
    800007b4:	c200f0d3          	fcvt.w.d	ra,ft1
    800007b8:	80000eb7          	lui	t4,0x80000
    800007bc:	fffe8e9b          	addiw	t4,t4,-1
    800007c0:	03400e13          	li	t3,52
    800007c4:	15d09863          	bne	ra,t4,80000914 <fail>

00000000800007c8 <test_53>:
    800007c8:	00002097          	auipc	ra,0x2
    800007cc:	c8808093          	addi	ra,ra,-888 # 80002450 <tdat_d>
    800007d0:	0080b087          	fld	ft1,8(ra)
    800007d4:	c220f0d3          	fcvt.l.d	ra,ft1
    800007d8:	fff00e9b          	addiw	t4,zero,-1
    800007dc:	03fe9e93          	slli	t4,t4,0x3f
    800007e0:	fffe8e93          	addi	t4,t4,-1 # ffffffff7fffffff <_end+0xfffffffeffffdb8f>
    800007e4:	03500e13          	li	t3,53
    800007e8:	13d09663          	bne	ra,t4,80000914 <fail>

00000000800007ec <test_54>:
    800007ec:	00002097          	auipc	ra,0x2
    800007f0:	c6408093          	addi	ra,ra,-924 # 80002450 <tdat_d>
    800007f4:	0180b087          	fld	ft1,24(ra)
    800007f8:	c200f0d3          	fcvt.w.d	ra,ft1
    800007fc:	80000eb7          	lui	t4,0x80000
    80000800:	fffe8e9b          	addiw	t4,t4,-1
    80000804:	03600e13          	li	t3,54
    80000808:	11d09663          	bne	ra,t4,80000914 <fail>

000000008000080c <test_55>:
    8000080c:	00002097          	auipc	ra,0x2
    80000810:	c4408093          	addi	ra,ra,-956 # 80002450 <tdat_d>
    80000814:	0180b087          	fld	ft1,24(ra)
    80000818:	c220f0d3          	fcvt.l.d	ra,ft1
    8000081c:	fff00e9b          	addiw	t4,zero,-1
    80000820:	03fe9e93          	slli	t4,t4,0x3f
    80000824:	fffe8e93          	addi	t4,t4,-1 # ffffffff7fffffff <_end+0xfffffffeffffdb8f>
    80000828:	03700e13          	li	t3,55
    8000082c:	0fd09463          	bne	ra,t4,80000914 <fail>

0000000080000830 <test_62>:
    80000830:	00002097          	auipc	ra,0x2
    80000834:	c2008093          	addi	ra,ra,-992 # 80002450 <tdat_d>
    80000838:	0000b087          	fld	ft1,0(ra)
    8000083c:	c210f0d3          	fcvt.wu.d	ra,ft1
    80000840:	fff00e93          	li	t4,-1
    80000844:	03e00e13          	li	t3,62
    80000848:	0dd09663          	bne	ra,t4,80000914 <fail>

000000008000084c <test_63>:
    8000084c:	00002097          	auipc	ra,0x2
    80000850:	c0408093          	addi	ra,ra,-1020 # 80002450 <tdat_d>
    80000854:	0080b087          	fld	ft1,8(ra)
    80000858:	c210f0d3          	fcvt.wu.d	ra,ft1
    8000085c:	fff00e93          	li	t4,-1
    80000860:	03f00e13          	li	t3,63
    80000864:	0bd09863          	bne	ra,t4,80000914 <fail>

0000000080000868 <test_64>:
    80000868:	00002097          	auipc	ra,0x2
    8000086c:	be808093          	addi	ra,ra,-1048 # 80002450 <tdat_d>
    80000870:	0100b087          	fld	ft1,16(ra)
    80000874:	c210f0d3          	fcvt.wu.d	ra,ft1
    80000878:	00000e93          	li	t4,0
    8000087c:	04000e13          	li	t3,64
    80000880:	09d09a63          	bne	ra,t4,80000914 <fail>

0000000080000884 <test_65>:
    80000884:	00002097          	auipc	ra,0x2
    80000888:	bcc08093          	addi	ra,ra,-1076 # 80002450 <tdat_d>
    8000088c:	0180b087          	fld	ft1,24(ra)
    80000890:	c210f0d3          	fcvt.wu.d	ra,ft1
    80000894:	fff00e93          	li	t4,-1
    80000898:	04100e13          	li	t3,65
    8000089c:	07d09c63          	bne	ra,t4,80000914 <fail>

00000000800008a0 <test_66>:
    800008a0:	00002097          	auipc	ra,0x2
    800008a4:	bb008093          	addi	ra,ra,-1104 # 80002450 <tdat_d>
    800008a8:	0000b087          	fld	ft1,0(ra)
    800008ac:	c230f0d3          	fcvt.lu.d	ra,ft1
    800008b0:	fff00e93          	li	t4,-1
    800008b4:	04200e13          	li	t3,66
    800008b8:	05d09e63          	bne	ra,t4,80000914 <fail>

00000000800008bc <test_67>:
    800008bc:	00002097          	auipc	ra,0x2
    800008c0:	b9408093          	addi	ra,ra,-1132 # 80002450 <tdat_d>
    800008c4:	0080b087          	fld	ft1,8(ra)
    800008c8:	c230f0d3          	fcvt.lu.d	ra,ft1
    800008cc:	fff00e93          	li	t4,-1
    800008d0:	04300e13          	li	t3,67
    800008d4:	05d09063          	bne	ra,t4,80000914 <fail>

00000000800008d8 <test_68>:
    800008d8:	00002097          	auipc	ra,0x2
    800008dc:	b7808093          	addi	ra,ra,-1160 # 80002450 <tdat_d>
    800008e0:	0100b087          	fld	ft1,16(ra)
    800008e4:	c230f0d3          	fcvt.lu.d	ra,ft1
    800008e8:	00000e93          	li	t4,0
    800008ec:	04400e13          	li	t3,68
    800008f0:	03d09263          	bne	ra,t4,80000914 <fail>

00000000800008f4 <test_69>:
    800008f4:	00002097          	auipc	ra,0x2
    800008f8:	b5c08093          	addi	ra,ra,-1188 # 80002450 <tdat_d>
    800008fc:	0180b087          	fld	ft1,24(ra)
    80000900:	c230f0d3          	fcvt.lu.d	ra,ft1
    80000904:	fff00e93          	li	t4,-1
    80000908:	04500e13          	li	t3,69
    8000090c:	01d09463          	bne	ra,t4,80000914 <fail>
    80000910:	01c01c63          	bne	zero,t3,80000928 <pass>

0000000080000914 <fail>:
    80000914:	0ff0000f          	fence
    80000918:	000e0063          	beqz	t3,80000918 <fail+0x4>
    8000091c:	001e1e13          	slli	t3,t3,0x1
    80000920:	001e6e13          	ori	t3,t3,1
    80000924:	00000073          	ecall

0000000080000928 <pass>:
    80000928:	0ff0000f          	fence
    8000092c:	00100e13          	li	t3,1
    80000930:	00000073          	ecall
    80000934:	c0001073          	unimp
