
rv64ud-v-fsgnj:     file format elf64-littleriscv


Disassembly of section .text.init:

0000000080000000 <reset_vector>:
    80000000:	00c0006f          	j	8000000c <handle_reset>

0000000080000004 <nmi_vector>:
    80000004:	2600206f          	j	80002264 <wtf>

0000000080000008 <trap_vector>:
    80000008:	25c0206f          	j	80002264 <wtf>

000000008000000c <handle_reset>:
    8000000c:	00000297          	auipc	t0,0x0
    80000010:	ffc28293          	addi	t0,t0,-4 # 80000008 <trap_vector>
    80000014:	30529073          	csrw	mtvec,t0
    80000018:	0000a117          	auipc	sp,0xa
    8000001c:	6b810113          	addi	sp,sp,1720 # 8000a6d0 <_end+0xee0>
    80000020:	f14022f3          	csrr	t0,mhartid
    80000024:	00c29293          	slli	t0,t0,0xc
    80000028:	00510133          	add	sp,sp,t0
    8000002c:	34011073          	csrw	mscratch,sp
    80000030:	00003517          	auipc	a0,0x3
    80000034:	9ac50513          	addi	a0,a0,-1620 # 800029dc <userstart>
    80000038:	7a40206f          	j	800027dc <vm_boot>

000000008000003c <pop_tf>:
    8000003c:	10853283          	ld	t0,264(a0)
    80000040:	14129073          	csrw	sepc,t0
    80000044:	00853083          	ld	ra,8(a0)
    80000048:	01053103          	ld	sp,16(a0)
    8000004c:	01853183          	ld	gp,24(a0)
    80000050:	02053203          	ld	tp,32(a0)
    80000054:	02853283          	ld	t0,40(a0)
    80000058:	03053303          	ld	t1,48(a0)
    8000005c:	03853383          	ld	t2,56(a0)
    80000060:	04053403          	ld	s0,64(a0)
    80000064:	04853483          	ld	s1,72(a0)
    80000068:	05853583          	ld	a1,88(a0)
    8000006c:	06053603          	ld	a2,96(a0)
    80000070:	06853683          	ld	a3,104(a0)
    80000074:	07053703          	ld	a4,112(a0)
    80000078:	07853783          	ld	a5,120(a0)
    8000007c:	08053803          	ld	a6,128(a0)
    80000080:	08853883          	ld	a7,136(a0)
    80000084:	09053903          	ld	s2,144(a0)
    80000088:	09853983          	ld	s3,152(a0)
    8000008c:	0a053a03          	ld	s4,160(a0)
    80000090:	0a853a83          	ld	s5,168(a0)
    80000094:	0b053b03          	ld	s6,176(a0)
    80000098:	0b853b83          	ld	s7,184(a0)
    8000009c:	0c053c03          	ld	s8,192(a0)
    800000a0:	0c853c83          	ld	s9,200(a0)
    800000a4:	0d053d03          	ld	s10,208(a0)
    800000a8:	0d853d83          	ld	s11,216(a0)
    800000ac:	0e053e03          	ld	t3,224(a0)
    800000b0:	0e853e83          	ld	t4,232(a0)
    800000b4:	0f053f03          	ld	t5,240(a0)
    800000b8:	0f853f83          	ld	t6,248(a0)
    800000bc:	05053503          	ld	a0,80(a0)
    800000c0:	10200073          	sret

00000000800000c4 <trap_entry>:
    800000c4:	14011173          	csrrw	sp,sscratch,sp
    800000c8:	00113423          	sd	ra,8(sp)
    800000cc:	00313c23          	sd	gp,24(sp)
    800000d0:	02413023          	sd	tp,32(sp)
    800000d4:	02513423          	sd	t0,40(sp)
    800000d8:	02613823          	sd	t1,48(sp)
    800000dc:	02713c23          	sd	t2,56(sp)
    800000e0:	04813023          	sd	s0,64(sp)
    800000e4:	04913423          	sd	s1,72(sp)
    800000e8:	04a13823          	sd	a0,80(sp)
    800000ec:	04b13c23          	sd	a1,88(sp)
    800000f0:	06c13023          	sd	a2,96(sp)
    800000f4:	06d13423          	sd	a3,104(sp)
    800000f8:	06e13823          	sd	a4,112(sp)
    800000fc:	06f13c23          	sd	a5,120(sp)
    80000100:	09013023          	sd	a6,128(sp)
    80000104:	09113423          	sd	a7,136(sp)
    80000108:	09213823          	sd	s2,144(sp)
    8000010c:	09313c23          	sd	s3,152(sp)
    80000110:	0b413023          	sd	s4,160(sp)
    80000114:	0b513423          	sd	s5,168(sp)
    80000118:	0b613823          	sd	s6,176(sp)
    8000011c:	0b713c23          	sd	s7,184(sp)
    80000120:	0d813023          	sd	s8,192(sp)
    80000124:	0d913423          	sd	s9,200(sp)
    80000128:	0da13823          	sd	s10,208(sp)
    8000012c:	0db13c23          	sd	s11,216(sp)
    80000130:	0fc13023          	sd	t3,224(sp)
    80000134:	0fd13423          	sd	t4,232(sp)
    80000138:	0fe13823          	sd	t5,240(sp)
    8000013c:	0ff13c23          	sd	t6,248(sp)
    80000140:	140112f3          	csrrw	t0,sscratch,sp
    80000144:	00513823          	sd	t0,16(sp)
    80000148:	100022f3          	csrr	t0,sstatus
    8000014c:	10513023          	sd	t0,256(sp)
    80000150:	141022f3          	csrr	t0,sepc
    80000154:	10513423          	sd	t0,264(sp)
    80000158:	143022f3          	csrr	t0,sbadaddr
    8000015c:	10513823          	sd	t0,272(sp)
    80000160:	142022f3          	csrr	t0,scause
    80000164:	10513c23          	sd	t0,280(sp)
    80000168:	00010513          	mv	a0,sp
    8000016c:	34c0206f          	j	800024b8 <handle_trap>

Disassembly of section .text:

0000000080002000 <memcpy>:
    80002000:	00c5e7b3          	or	a5,a1,a2
    80002004:	00f567b3          	or	a5,a0,a5
    80002008:	0077f793          	andi	a5,a5,7
    8000200c:	00c50633          	add	a2,a0,a2
    80002010:	02078263          	beqz	a5,80002034 <memcpy+0x34>
    80002014:	00050793          	mv	a5,a0
    80002018:	02c57e63          	bleu	a2,a0,80002054 <memcpy+0x54>
    8000201c:	00158593          	addi	a1,a1,1
    80002020:	fff5c703          	lbu	a4,-1(a1)
    80002024:	00178793          	addi	a5,a5,1
    80002028:	fee78fa3          	sb	a4,-1(a5)
    8000202c:	fec798e3          	bne	a5,a2,8000201c <memcpy+0x1c>
    80002030:	00008067          	ret
    80002034:	fec57ee3          	bleu	a2,a0,80002030 <memcpy+0x30>
    80002038:	00050793          	mv	a5,a0
    8000203c:	00858593          	addi	a1,a1,8
    80002040:	ff85b703          	ld	a4,-8(a1)
    80002044:	00878793          	addi	a5,a5,8
    80002048:	fee7bc23          	sd	a4,-8(a5)
    8000204c:	fec7e8e3          	bltu	a5,a2,8000203c <memcpy+0x3c>
    80002050:	00008067          	ret
    80002054:	00008067          	ret

0000000080002058 <memset>:
    80002058:	00c567b3          	or	a5,a0,a2
    8000205c:	0077f793          	andi	a5,a5,7
    80002060:	02078263          	beqz	a5,80002084 <memset+0x2c>
    80002064:	00c50633          	add	a2,a0,a2
    80002068:	0ff5f593          	andi	a1,a1,255
    8000206c:	00050793          	mv	a5,a0
    80002070:	04c57663          	bleu	a2,a0,800020bc <memset+0x64>
    80002074:	00178793          	addi	a5,a5,1
    80002078:	feb78fa3          	sb	a1,-1(a5)
    8000207c:	fec79ce3          	bne	a5,a2,80002074 <memset+0x1c>
    80002080:	00008067          	ret
    80002084:	0ff5f713          	andi	a4,a1,255
    80002088:	00871593          	slli	a1,a4,0x8
    8000208c:	00b76733          	or	a4,a4,a1
    80002090:	01071793          	slli	a5,a4,0x10
    80002094:	00f76733          	or	a4,a4,a5
    80002098:	02071793          	slli	a5,a4,0x20
    8000209c:	00c50633          	add	a2,a0,a2
    800020a0:	00f76733          	or	a4,a4,a5
    800020a4:	fcc57ee3          	bleu	a2,a0,80002080 <memset+0x28>
    800020a8:	00050793          	mv	a5,a0
    800020ac:	00878793          	addi	a5,a5,8
    800020b0:	fee7bc23          	sd	a4,-8(a5)
    800020b4:	fec7ece3          	bltu	a5,a2,800020ac <memset+0x54>
    800020b8:	00008067          	ret
    800020bc:	00008067          	ret

00000000800020c0 <strlen>:
    800020c0:	00054783          	lbu	a5,0(a0)
    800020c4:	00078e63          	beqz	a5,800020e0 <strlen+0x20>
    800020c8:	00050793          	mv	a5,a0
    800020cc:	00178793          	addi	a5,a5,1
    800020d0:	0007c703          	lbu	a4,0(a5)
    800020d4:	fe071ce3          	bnez	a4,800020cc <strlen+0xc>
    800020d8:	40a78533          	sub	a0,a5,a0
    800020dc:	00008067          	ret
    800020e0:	00000513          	li	a0,0
    800020e4:	00008067          	ret

00000000800020e8 <strcmp>:
    800020e8:	00150513          	addi	a0,a0,1
    800020ec:	fff54783          	lbu	a5,-1(a0)
    800020f0:	00158593          	addi	a1,a1,1
    800020f4:	fff5c703          	lbu	a4,-1(a1)
    800020f8:	00078863          	beqz	a5,80002108 <strcmp+0x20>
    800020fc:	fee786e3          	beq	a5,a4,800020e8 <strcmp>
    80002100:	40e7853b          	subw	a0,a5,a4
    80002104:	00008067          	ret
    80002108:	00000793          	li	a5,0
    8000210c:	ff5ff06f          	j	80002100 <strcmp+0x18>

0000000080002110 <memcmp>:
    80002110:	00b56733          	or	a4,a0,a1
    80002114:	00777713          	andi	a4,a4,7
    80002118:	04071463          	bnez	a4,80002160 <memcmp+0x50>
    8000211c:	ff867813          	andi	a6,a2,-8
    80002120:	01050833          	add	a6,a0,a6
    80002124:	07057663          	bleu	a6,a0,80002190 <memcmp+0x80>
    80002128:	00053683          	ld	a3,0(a0)
    8000212c:	0005b783          	ld	a5,0(a1)
    80002130:	06f69063          	bne	a3,a5,80002190 <memcmp+0x80>
    80002134:	00050793          	mv	a5,a0
    80002138:	0100006f          	j	80002148 <memcmp+0x38>
    8000213c:	0007b683          	ld	a3,0(a5)
    80002140:	0005b703          	ld	a4,0(a1)
    80002144:	00e69863          	bne	a3,a4,80002154 <memcmp+0x44>
    80002148:	00878793          	addi	a5,a5,8
    8000214c:	00858593          	addi	a1,a1,8
    80002150:	ff07e6e3          	bltu	a5,a6,8000213c <memcmp+0x2c>
    80002154:	40a78733          	sub	a4,a5,a0
    80002158:	40e60633          	sub	a2,a2,a4
    8000215c:	00078513          	mv	a0,a5
    80002160:	00c58633          	add	a2,a1,a2
    80002164:	0140006f          	j	80002178 <memcmp+0x68>
    80002168:	00158593          	addi	a1,a1,1
    8000216c:	fff54783          	lbu	a5,-1(a0)
    80002170:	fff5c703          	lbu	a4,-1(a1)
    80002174:	00e79a63          	bne	a5,a4,80002188 <memcmp+0x78>
    80002178:	00150513          	addi	a0,a0,1
    8000217c:	fec596e3          	bne	a1,a2,80002168 <memcmp+0x58>
    80002180:	00000513          	li	a0,0
    80002184:	00008067          	ret
    80002188:	40e7853b          	subw	a0,a5,a4
    8000218c:	00008067          	ret
    80002190:	00050793          	mv	a5,a0
    80002194:	fc5ff06f          	j	80002158 <memcmp+0x48>

0000000080002198 <strcpy>:
    80002198:	00050793          	mv	a5,a0
    8000219c:	00158593          	addi	a1,a1,1
    800021a0:	fff5c703          	lbu	a4,-1(a1)
    800021a4:	00178793          	addi	a5,a5,1
    800021a8:	fee78fa3          	sb	a4,-1(a5)
    800021ac:	fe0718e3          	bnez	a4,8000219c <strcpy+0x4>
    800021b0:	00008067          	ret

00000000800021b4 <atol>:
    800021b4:	00054703          	lbu	a4,0(a0)
    800021b8:	02000693          	li	a3,32
    800021bc:	00050793          	mv	a5,a0
    800021c0:	00d71a63          	bne	a4,a3,800021d4 <atol+0x20>
    800021c4:	00070693          	mv	a3,a4
    800021c8:	00178793          	addi	a5,a5,1
    800021cc:	0007c703          	lbu	a4,0(a5)
    800021d0:	fed70ce3          	beq	a4,a3,800021c8 <atol+0x14>
    800021d4:	fd57069b          	addiw	a3,a4,-43
    800021d8:	0fd6f693          	andi	a3,a3,253
    800021dc:	04068263          	beqz	a3,80002220 <atol+0x6c>
    800021e0:	0007c683          	lbu	a3,0(a5)
    800021e4:	00000613          	li	a2,0
    800021e8:	04068a63          	beqz	a3,8000223c <atol+0x88>
    800021ec:	00000713          	li	a4,0
    800021f0:	00178793          	addi	a5,a5,1
    800021f4:	00271513          	slli	a0,a4,0x2
    800021f8:	fd06859b          	addiw	a1,a3,-48
    800021fc:	0007c683          	lbu	a3,0(a5)
    80002200:	00e50533          	add	a0,a0,a4
    80002204:	00151513          	slli	a0,a0,0x1
    80002208:	00a58733          	add	a4,a1,a0
    8000220c:	fe0692e3          	bnez	a3,800021f0 <atol+0x3c>
    80002210:	00060463          	beqz	a2,80002218 <atol+0x64>
    80002214:	40e00733          	neg	a4,a4
    80002218:	00070513          	mv	a0,a4
    8000221c:	00008067          	ret
    80002220:	0017c683          	lbu	a3,1(a5)
    80002224:	fd37071b          	addiw	a4,a4,-45
    80002228:	00173613          	seqz	a2,a4
    8000222c:	00178793          	addi	a5,a5,1
    80002230:	fa069ee3          	bnez	a3,800021ec <atol+0x38>
    80002234:	00000713          	li	a4,0
    80002238:	fd9ff06f          	j	80002210 <atol+0x5c>
    8000223c:	00000713          	li	a4,0
    80002240:	fd9ff06f          	j	80002218 <atol+0x64>

0000000080002244 <terminate>:
    80002244:	fffff797          	auipc	a5,0xfffff
    80002248:	daa7be23          	sd	a0,-580(a5) # 80001000 <tohost>
    8000224c:	fffff797          	auipc	a5,0xfffff
    80002250:	df47b783          	ld	a5,-524(a5) # 80001040 <fromhost>
    80002254:	fe078ce3          	beqz	a5,8000224c <terminate+0x8>
    80002258:	fffff797          	auipc	a5,0xfffff
    8000225c:	de07b423          	sd	zero,-536(a5) # 80001040 <fromhost>
    80002260:	0000006f          	j	80002260 <terminate+0x1c>

0000000080002264 <wtf>:
    80002264:	ff010113          	addi	sp,sp,-16
    80002268:	34900513          	li	a0,841
    8000226c:	00113423          	sd	ra,8(sp)
    80002270:	fd5ff0ef          	jal	80002244 <terminate>

0000000080002274 <printhex>:
    80002274:	fe010113          	addi	sp,sp,-32
    80002278:	01710713          	addi	a4,sp,23
    8000227c:	00710893          	addi	a7,sp,7
    80002280:	00900813          	li	a6,9
    80002284:	03000593          	li	a1,48
    80002288:	05700313          	li	t1,87
    8000228c:	00f57693          	andi	a3,a0,15
    80002290:	00068613          	mv	a2,a3
    80002294:	00058793          	mv	a5,a1
    80002298:	00d87463          	bleu	a3,a6,800022a0 <printhex+0x2c>
    8000229c:	00030793          	mv	a5,t1
    800022a0:	00c787bb          	addw	a5,a5,a2
    800022a4:	00f70023          	sb	a5,0(a4)
    800022a8:	fff70713          	addi	a4,a4,-1
    800022ac:	00455513          	srli	a0,a0,0x4
    800022b0:	fd171ee3          	bne	a4,a7,8000228c <printhex+0x18>
    800022b4:	00814783          	lbu	a5,8(sp)
    800022b8:	10100693          	li	a3,257
    800022bc:	00010c23          	sb	zero,24(sp)
    800022c0:	00810713          	addi	a4,sp,8
    800022c4:	03069693          	slli	a3,a3,0x30
    800022c8:	02078863          	beqz	a5,800022f8 <printhex+0x84>
    800022cc:	00d7e7b3          	or	a5,a5,a3
    800022d0:	00170713          	addi	a4,a4,1
    800022d4:	fffff617          	auipc	a2,0xfffff
    800022d8:	d2f63623          	sd	a5,-724(a2) # 80001000 <tohost>
    800022dc:	fffff797          	auipc	a5,0xfffff
    800022e0:	d647b783          	ld	a5,-668(a5) # 80001040 <fromhost>
    800022e4:	fe078ce3          	beqz	a5,800022dc <printhex+0x68>
    800022e8:	00074783          	lbu	a5,0(a4)
    800022ec:	fffff617          	auipc	a2,0xfffff
    800022f0:	d4063a23          	sd	zero,-684(a2) # 80001040 <fromhost>
    800022f4:	fc079ce3          	bnez	a5,800022cc <printhex+0x58>
    800022f8:	02010113          	addi	sp,sp,32
    800022fc:	00008067          	ret

0000000080002300 <handle_fault>:
    80002300:	fffff7b7          	lui	a5,0xfffff
    80002304:	00f506b3          	add	a3,a0,a5
    80002308:	0003e737          	lui	a4,0x3e
    8000230c:	0ce6fa63          	bleu	a4,a3,800023e0 <handle_fault+0xe0>
    80002310:	00007697          	auipc	a3,0x7
    80002314:	4d86b683          	ld	a3,1240(a3) # 800097e8 <freelist_head>
    80002318:	00f577b3          	and	a5,a0,a5
    8000231c:	14068c63          	beqz	a3,80002474 <handle_fault+0x174>
    80002320:	0086b703          	ld	a4,8(a3)
    80002324:	00007617          	auipc	a2,0x7
    80002328:	4bc63603          	ld	a2,1212(a2) # 800097e0 <freelist_tail>
    8000232c:	00007597          	auipc	a1,0x7
    80002330:	4ae5be23          	sd	a4,1212(a1) # 800097e8 <freelist_head>
    80002334:	0ac70063          	beq	a4,a2,800023d4 <handle_fault+0xd4>
    80002338:	0006b703          	ld	a4,0(a3)
    8000233c:	00c55513          	srli	a0,a0,0xc
    80002340:	60050613          	addi	a2,a0,1536
    80002344:	00c75713          	srli	a4,a4,0xc
    80002348:	00361593          	slli	a1,a2,0x3
    8000234c:	00a71713          	slli	a4,a4,0xa
    80002350:	00002617          	auipc	a2,0x2
    80002354:	cb060613          	addi	a2,a2,-848 # 80004000 <pt>
    80002358:	00b60633          	add	a2,a2,a1
    8000235c:	01f76713          	ori	a4,a4,31
    80002360:	00e63023          	sd	a4,0(a2)
    80002364:	10400073          	sfence.vm
    80002368:	00007717          	auipc	a4,0x7
    8000236c:	08870713          	addi	a4,a4,136 # 800093f0 <user_mapping>
    80002370:	00451513          	slli	a0,a0,0x4
    80002374:	00a70533          	add	a0,a4,a0
    80002378:	00053703          	ld	a4,0(a0)
    8000237c:	0a071a63          	bnez	a4,80002430 <handle_fault+0x130>
    80002380:	0006b603          	ld	a2,0(a3)
    80002384:	ffe00737          	lui	a4,0xffe00
    80002388:	00e78733          	add	a4,a5,a4
    8000238c:	00c53023          	sd	a2,0(a0)
    80002390:	0086b683          	ld	a3,8(a3)
    80002394:	00d53423          	sd	a3,8(a0)
    80002398:	000016b7          	lui	a3,0x1
    8000239c:	00d706b3          	add	a3,a4,a3
    800023a0:	00073803          	ld	a6,0(a4) # ffffffffffe00000 <_end+0xffffffff7fdf6810>
    800023a4:	00873503          	ld	a0,8(a4)
    800023a8:	01073583          	ld	a1,16(a4)
    800023ac:	01873603          	ld	a2,24(a4)
    800023b0:	0107b023          	sd	a6,0(a5) # fffffffffffff000 <_end+0xffffffff7fff5810>
    800023b4:	00a7b423          	sd	a0,8(a5)
    800023b8:	00b7b823          	sd	a1,16(a5)
    800023bc:	00c7bc23          	sd	a2,24(a5)
    800023c0:	02070713          	addi	a4,a4,32
    800023c4:	02078793          	addi	a5,a5,32
    800023c8:	fcd71ce3          	bne	a4,a3,800023a0 <handle_fault+0xa0>
    800023cc:	0000100f          	fence.i
    800023d0:	00008067          	ret
    800023d4:	00007717          	auipc	a4,0x7
    800023d8:	40073623          	sd	zero,1036(a4) # 800097e0 <freelist_tail>
    800023dc:	f5dff06f          	j	80002338 <handle_fault+0x38>
    800023e0:	10100693          	li	a3,257
    800023e4:	04100793          	li	a5,65
    800023e8:	00001717          	auipc	a4,0x1
    800023ec:	88870713          	addi	a4,a4,-1912 # 80002c70 <pass+0xc>
    800023f0:	03069693          	slli	a3,a3,0x30
    800023f4:	00d7e7b3          	or	a5,a5,a3
    800023f8:	00170713          	addi	a4,a4,1
    800023fc:	fffff617          	auipc	a2,0xfffff
    80002400:	c0f63223          	sd	a5,-1020(a2) # 80001000 <tohost>
    80002404:	fffff797          	auipc	a5,0xfffff
    80002408:	c3c7b783          	ld	a5,-964(a5) # 80001040 <fromhost>
    8000240c:	fe078ce3          	beqz	a5,80002404 <handle_fault+0x104>
    80002410:	00074783          	lbu	a5,0(a4)
    80002414:	fffff617          	auipc	a2,0xfffff
    80002418:	c2063623          	sd	zero,-980(a2) # 80001040 <fromhost>
    8000241c:	fc079ce3          	bnez	a5,800023f4 <handle_fault+0xf4>
    80002420:	ff010113          	addi	sp,sp,-16
    80002424:	00300513          	li	a0,3
    80002428:	00113423          	sd	ra,8(sp)
    8000242c:	e19ff0ef          	jal	80002244 <terminate>
    80002430:	10100693          	li	a3,257
    80002434:	04100793          	li	a5,65
    80002438:	00001717          	auipc	a4,0x1
    8000243c:	89870713          	addi	a4,a4,-1896 # 80002cd0 <pass+0x6c>
    80002440:	03069693          	slli	a3,a3,0x30
    80002444:	00d7e7b3          	or	a5,a5,a3
    80002448:	00170713          	addi	a4,a4,1
    8000244c:	fffff617          	auipc	a2,0xfffff
    80002450:	baf63a23          	sd	a5,-1100(a2) # 80001000 <tohost>
    80002454:	fffff797          	auipc	a5,0xfffff
    80002458:	bec7b783          	ld	a5,-1044(a5) # 80001040 <fromhost>
    8000245c:	fe078ce3          	beqz	a5,80002454 <handle_fault+0x154>
    80002460:	00074783          	lbu	a5,0(a4)
    80002464:	fffff617          	auipc	a2,0xfffff
    80002468:	bc063e23          	sd	zero,-1060(a2) # 80001040 <fromhost>
    8000246c:	fc079ce3          	bnez	a5,80002444 <handle_fault+0x144>
    80002470:	fb1ff06f          	j	80002420 <handle_fault+0x120>
    80002474:	10100693          	li	a3,257
    80002478:	04100793          	li	a5,65
    8000247c:	00001717          	auipc	a4,0x1
    80002480:	83c70713          	addi	a4,a4,-1988 # 80002cb8 <pass+0x54>
    80002484:	03069693          	slli	a3,a3,0x30
    80002488:	00d7e7b3          	or	a5,a5,a3
    8000248c:	00170713          	addi	a4,a4,1
    80002490:	fffff617          	auipc	a2,0xfffff
    80002494:	b6f63823          	sd	a5,-1168(a2) # 80001000 <tohost>
    80002498:	fffff797          	auipc	a5,0xfffff
    8000249c:	ba87b783          	ld	a5,-1112(a5) # 80001040 <fromhost>
    800024a0:	fe078ce3          	beqz	a5,80002498 <handle_fault+0x198>
    800024a4:	00074783          	lbu	a5,0(a4)
    800024a8:	fffff617          	auipc	a2,0xfffff
    800024ac:	b8063c23          	sd	zero,-1128(a2) # 80001040 <fromhost>
    800024b0:	fc079ce3          	bnez	a5,80002488 <handle_fault+0x188>
    800024b4:	f6dff06f          	j	80002420 <handle_fault+0x120>

00000000800024b8 <handle_trap>:
    800024b8:	11853783          	ld	a5,280(a0)
    800024bc:	f9010113          	addi	sp,sp,-112
    800024c0:	06813023          	sd	s0,96(sp)
    800024c4:	06113423          	sd	ra,104(sp)
    800024c8:	04913c23          	sd	s1,88(sp)
    800024cc:	05213823          	sd	s2,80(sp)
    800024d0:	05313423          	sd	s3,72(sp)
    800024d4:	05413023          	sd	s4,64(sp)
    800024d8:	03513c23          	sd	s5,56(sp)
    800024dc:	03613823          	sd	s6,48(sp)
    800024e0:	03713423          	sd	s7,40(sp)
    800024e4:	03813023          	sd	s8,32(sp)
    800024e8:	01913c23          	sd	s9,24(sp)
    800024ec:	01a13823          	sd	s10,16(sp)
    800024f0:	01b13423          	sd	s11,8(sp)
    800024f4:	00800713          	li	a4,8
    800024f8:	00050413          	mv	s0,a0
    800024fc:	0ce78e63          	beq	a5,a4,800025d8 <handle_trap+0x120>
    80002500:	00200713          	li	a4,2
    80002504:	06e78263          	beq	a5,a4,80002568 <handle_trap+0xb0>
    80002508:	ffb7f713          	andi	a4,a5,-5
    8000250c:	00100693          	li	a3,1
    80002510:	00d70663          	beq	a4,a3,8000251c <handle_trap+0x64>
    80002514:	00700713          	li	a4,7
    80002518:	22e79e63          	bne	a5,a4,80002754 <handle_trap+0x29c>
    8000251c:	11043503          	ld	a0,272(s0)
    80002520:	de1ff0ef          	jal	80002300 <handle_fault>
    80002524:	00040513          	mv	a0,s0
    80002528:	06813083          	ld	ra,104(sp)
    8000252c:	06013403          	ld	s0,96(sp)
    80002530:	05813483          	ld	s1,88(sp)
    80002534:	05013903          	ld	s2,80(sp)
    80002538:	04813983          	ld	s3,72(sp)
    8000253c:	04013a03          	ld	s4,64(sp)
    80002540:	03813a83          	ld	s5,56(sp)
    80002544:	03013b03          	ld	s6,48(sp)
    80002548:	02813b83          	ld	s7,40(sp)
    8000254c:	02013c03          	ld	s8,32(sp)
    80002550:	01813c83          	ld	s9,24(sp)
    80002554:	01013d03          	ld	s10,16(sp)
    80002558:	00813d83          	ld	s11,8(sp)
    8000255c:	07010113          	addi	sp,sp,112
    80002560:	ffffe317          	auipc	t1,0xffffe
    80002564:	adc30067          	jr	t1,-1316 # 8000003c <pop_tf>
    80002568:	10853703          	ld	a4,264(a0)
    8000256c:	00377793          	andi	a5,a4,3
    80002570:	22079463          	bnez	a5,80002798 <handle_trap+0x2e0>
    80002574:	008007ef          	jal	a5,8000257c <handle_trap+0xc4>
    80002578:	00301073          	fssr	zero
    8000257c:	00072583          	lw	a1,0(a4)
    80002580:	0007a603          	lw	a2,0(a5)
    80002584:	10100693          	li	a3,257
    80002588:	04100793          	li	a5,65
    8000258c:	00001717          	auipc	a4,0x1
    80002590:	81c70713          	addi	a4,a4,-2020 # 80002da8 <pass+0x144>
    80002594:	03069693          	slli	a3,a3,0x30
    80002598:	02c58c63          	beq	a1,a2,800025d0 <handle_trap+0x118>
    8000259c:	00d7e7b3          	or	a5,a5,a3
    800025a0:	00170713          	addi	a4,a4,1
    800025a4:	fffff617          	auipc	a2,0xfffff
    800025a8:	a4f63e23          	sd	a5,-1444(a2) # 80001000 <tohost>
    800025ac:	fffff797          	auipc	a5,0xfffff
    800025b0:	a947b783          	ld	a5,-1388(a5) # 80001040 <fromhost>
    800025b4:	fe078ce3          	beqz	a5,800025ac <handle_trap+0xf4>
    800025b8:	00074783          	lbu	a5,0(a4)
    800025bc:	fffff617          	auipc	a2,0xfffff
    800025c0:	a8063223          	sd	zero,-1404(a2) # 80001040 <fromhost>
    800025c4:	fc079ce3          	bnez	a5,8000259c <handle_trap+0xe4>
    800025c8:	00300513          	li	a0,3
    800025cc:	c79ff0ef          	jal	80002244 <terminate>
    800025d0:	00100513          	li	a0,1
    800025d4:	c71ff0ef          	jal	80002244 <terminate>
    800025d8:	05052b03          	lw	s6,80(a0)
    800025dc:	00001937          	lui	s2,0x1
    800025e0:	00007a97          	auipc	s5,0x7
    800025e4:	e10a8a93          	addi	s5,s5,-496 # 800093f0 <user_mapping>
    800025e8:	00002d17          	auipc	s10,0x2
    800025ec:	a18d0d13          	addi	s10,s10,-1512 # 80004000 <pt>
    800025f0:	fffffcb7          	lui	s9,0xfffff
    800025f4:	ffe00c37          	lui	s8,0xffe00
    800025f8:	00090a13          	mv	s4,s2
    800025fc:	0003fbb7          	lui	s7,0x3f
    80002600:	00c95793          	srli	a5,s2,0xc
    80002604:	00479493          	slli	s1,a5,0x4
    80002608:	009a8733          	add	a4,s5,s1
    8000260c:	00073703          	ld	a4,0(a4)
    80002610:	08070c63          	beqz	a4,800026a8 <handle_trap+0x1f0>
    80002614:	60078793          	addi	a5,a5,1536
    80002618:	00379793          	slli	a5,a5,0x3
    8000261c:	00fd07b3          	add	a5,s10,a5
    80002620:	0007b983          	ld	s3,0(a5)
    80002624:	0409f793          	andi	a5,s3,64
    80002628:	0a078263          	beqz	a5,800026cc <handle_trap+0x214>
    8000262c:	01997db3          	and	s11,s2,s9
    80002630:	018d8433          	add	s0,s11,s8
    80002634:	000a0613          	mv	a2,s4
    80002638:	00040593          	mv	a1,s0
    8000263c:	000d8513          	mv	a0,s11
    80002640:	ad1ff0ef          	jal	80002110 <memcmp>
    80002644:	04050263          	beqz	a0,80002688 <handle_trap+0x1d0>
    80002648:	0809f993          	andi	s3,s3,128
    8000264c:	0c098263          	beqz	s3,80002710 <handle_trap+0x258>
    80002650:	00040793          	mv	a5,s0
    80002654:	000d8713          	mv	a4,s11
    80002658:	014406b3          	add	a3,s0,s4
    8000265c:	0007b803          	ld	a6,0(a5)
    80002660:	0087b503          	ld	a0,8(a5)
    80002664:	0107b583          	ld	a1,16(a5)
    80002668:	0187b603          	ld	a2,24(a5)
    8000266c:	01073023          	sd	a6,0(a4)
    80002670:	00a73423          	sd	a0,8(a4)
    80002674:	00b73823          	sd	a1,16(a4)
    80002678:	00c73c23          	sd	a2,24(a4)
    8000267c:	02078793          	addi	a5,a5,32
    80002680:	02070713          	addi	a4,a4,32
    80002684:	fcd79ce3          	bne	a5,a3,8000265c <handle_trap+0x1a4>
    80002688:	009a87b3          	add	a5,s5,s1
    8000268c:	0007b023          	sd	zero,0(a5)
    80002690:	00007717          	auipc	a4,0x7
    80002694:	15073703          	ld	a4,336(a4) # 800097e0 <freelist_tail>
    80002698:	02070063          	beqz	a4,800026b8 <handle_trap+0x200>
    8000269c:	00f73423          	sd	a5,8(a4)
    800026a0:	00007717          	auipc	a4,0x7
    800026a4:	14f73023          	sd	a5,320(a4) # 800097e0 <freelist_tail>
    800026a8:	01490933          	add	s2,s2,s4
    800026ac:	f5791ae3          	bne	s2,s7,80002600 <handle_trap+0x148>
    800026b0:	000b0513          	mv	a0,s6
    800026b4:	b91ff0ef          	jal	80002244 <terminate>
    800026b8:	00007717          	auipc	a4,0x7
    800026bc:	12f73423          	sd	a5,296(a4) # 800097e0 <freelist_tail>
    800026c0:	00007717          	auipc	a4,0x7
    800026c4:	12f73423          	sd	a5,296(a4) # 800097e8 <freelist_head>
    800026c8:	fe1ff06f          	j	800026a8 <handle_trap+0x1f0>
    800026cc:	10100713          	li	a4,257
    800026d0:	04100793          	li	a5,65
    800026d4:	00000697          	auipc	a3,0x0
    800026d8:	63c68693          	addi	a3,a3,1596 # 80002d10 <pass+0xac>
    800026dc:	03071713          	slli	a4,a4,0x30
    800026e0:	00e7e7b3          	or	a5,a5,a4
    800026e4:	00168693          	addi	a3,a3,1
    800026e8:	fffff617          	auipc	a2,0xfffff
    800026ec:	90f63c23          	sd	a5,-1768(a2) # 80001000 <tohost>
    800026f0:	fffff797          	auipc	a5,0xfffff
    800026f4:	9507b783          	ld	a5,-1712(a5) # 80001040 <fromhost>
    800026f8:	fe078ce3          	beqz	a5,800026f0 <handle_trap+0x238>
    800026fc:	0006c783          	lbu	a5,0(a3)
    80002700:	fffff617          	auipc	a2,0xfffff
    80002704:	94063023          	sd	zero,-1728(a2) # 80001040 <fromhost>
    80002708:	fc079ce3          	bnez	a5,800026e0 <handle_trap+0x228>
    8000270c:	ebdff06f          	j	800025c8 <handle_trap+0x110>
    80002710:	10100713          	li	a4,257
    80002714:	04100793          	li	a5,65
    80002718:	00000697          	auipc	a3,0x0
    8000271c:	63068693          	addi	a3,a3,1584 # 80002d48 <pass+0xe4>
    80002720:	03071713          	slli	a4,a4,0x30
    80002724:	00e7e7b3          	or	a5,a5,a4
    80002728:	00168693          	addi	a3,a3,1
    8000272c:	fffff617          	auipc	a2,0xfffff
    80002730:	8cf63a23          	sd	a5,-1836(a2) # 80001000 <tohost>
    80002734:	fffff797          	auipc	a5,0xfffff
    80002738:	90c7b783          	ld	a5,-1780(a5) # 80001040 <fromhost>
    8000273c:	fe078ce3          	beqz	a5,80002734 <handle_trap+0x27c>
    80002740:	0006c783          	lbu	a5,0(a3)
    80002744:	fffff617          	auipc	a2,0xfffff
    80002748:	8e063e23          	sd	zero,-1796(a2) # 80001040 <fromhost>
    8000274c:	fc079ce3          	bnez	a5,80002724 <handle_trap+0x26c>
    80002750:	e79ff06f          	j	800025c8 <handle_trap+0x110>
    80002754:	10100713          	li	a4,257
    80002758:	04100793          	li	a5,65
    8000275c:	00000697          	auipc	a3,0x0
    80002760:	67c68693          	addi	a3,a3,1660 # 80002dd8 <pass+0x174>
    80002764:	03071713          	slli	a4,a4,0x30
    80002768:	00e7e7b3          	or	a5,a5,a4
    8000276c:	00168693          	addi	a3,a3,1
    80002770:	fffff617          	auipc	a2,0xfffff
    80002774:	88f63823          	sd	a5,-1904(a2) # 80001000 <tohost>
    80002778:	fffff797          	auipc	a5,0xfffff
    8000277c:	8c87b783          	ld	a5,-1848(a5) # 80001040 <fromhost>
    80002780:	fe078ce3          	beqz	a5,80002778 <handle_trap+0x2c0>
    80002784:	0006c783          	lbu	a5,0(a3)
    80002788:	fffff617          	auipc	a2,0xfffff
    8000278c:	8a063c23          	sd	zero,-1864(a2) # 80001040 <fromhost>
    80002790:	fc079ce3          	bnez	a5,80002768 <handle_trap+0x2b0>
    80002794:	e35ff06f          	j	800025c8 <handle_trap+0x110>
    80002798:	10100713          	li	a4,257
    8000279c:	04100793          	li	a5,65
    800027a0:	00000697          	auipc	a3,0x0
    800027a4:	5e068693          	addi	a3,a3,1504 # 80002d80 <pass+0x11c>
    800027a8:	03071713          	slli	a4,a4,0x30
    800027ac:	00e7e7b3          	or	a5,a5,a4
    800027b0:	00168693          	addi	a3,a3,1
    800027b4:	fffff617          	auipc	a2,0xfffff
    800027b8:	84f63623          	sd	a5,-1972(a2) # 80001000 <tohost>
    800027bc:	fffff797          	auipc	a5,0xfffff
    800027c0:	8847b783          	ld	a5,-1916(a5) # 80001040 <fromhost>
    800027c4:	fe078ce3          	beqz	a5,800027bc <handle_trap+0x304>
    800027c8:	0006c783          	lbu	a5,0(a3)
    800027cc:	fffff617          	auipc	a2,0xfffff
    800027d0:	86063a23          	sd	zero,-1932(a2) # 80001040 <fromhost>
    800027d4:	fc079ce3          	bnez	a5,800027ac <handle_trap+0x2f4>
    800027d8:	df1ff06f          	j	800025c8 <handle_trap+0x110>

00000000800027dc <vm_boot>:
    800027dc:	f14027f3          	csrr	a5,mhartid
    800027e0:	18079863          	bnez	a5,80002970 <vm_boot+0x194>
    800027e4:	ed010113          	addi	sp,sp,-304
    800027e8:	00002797          	auipc	a5,0x2
    800027ec:	81878793          	addi	a5,a5,-2024 # 80004000 <pt>
    800027f0:	12113423          	sd	ra,296(sp)
    800027f4:	12813023          	sd	s0,288(sp)
    800027f8:	00c7d793          	srli	a5,a5,0xc
    800027fc:	18079073          	csrw	sptbr,a5
    80002800:	00004697          	auipc	a3,0x4
    80002804:	80068693          	addi	a3,a3,-2048 # 80006000 <pt+0x2000>
    80002808:	00002717          	auipc	a4,0x2
    8000280c:	7f870713          	addi	a4,a4,2040 # 80005000 <pt+0x1000>
    80002810:	00004797          	auipc	a5,0x4
    80002814:	7f078793          	addi	a5,a5,2032 # 80007000 <pt+0x3000>
    80002818:	00005617          	auipc	a2,0x5
    8000281c:	7e860613          	addi	a2,a2,2024 # 80008000 <pt+0x4000>
    80002820:	00c6d693          	srli	a3,a3,0xc
    80002824:	00c75713          	srli	a4,a4,0xc
    80002828:	00c7d793          	srli	a5,a5,0xc
    8000282c:	00c65593          	srli	a1,a2,0xc
    80002830:	00a69693          	slli	a3,a3,0xa
    80002834:	00a71713          	slli	a4,a4,0xa
    80002838:	00a79793          	slli	a5,a5,0xa
    8000283c:	00176713          	ori	a4,a4,1
    80002840:	0016e693          	ori	a3,a3,1
    80002844:	0017e793          	ori	a5,a5,1
    80002848:	00a59593          	slli	a1,a1,0xa
    8000284c:	bff00e13          	li	t3,-1025
    80002850:	0015e593          	ori	a1,a1,1
    80002854:	015e1e13          	slli	t3,t3,0x15
    80002858:	00002817          	auipc	a6,0x2
    8000285c:	7ad83023          	sd	a3,1952(a6) # 80004ff8 <pt+0xff8>
    80002860:	00001697          	auipc	a3,0x1
    80002864:	7ae6b023          	sd	a4,1952(a3) # 80004000 <pt>
    80002868:	00002717          	auipc	a4,0x2
    8000286c:	78f73c23          	sd	a5,1944(a4) # 80005000 <pt+0x1000>
    80002870:	ffffe797          	auipc	a5,0xffffe
    80002874:	85478793          	addi	a5,a5,-1964 # 800000c4 <trap_entry>
    80002878:	00004717          	auipc	a4,0x4
    8000287c:	78b73023          	sd	a1,1920(a4) # 80006ff8 <pt+0x2ff8>
    80002880:	01c787b3          	add	a5,a5,t3
    80002884:	10579073          	csrw	stvec,a5
    80002888:	340027f3          	csrr	a5,mscratch
    8000288c:	01c787b3          	add	a5,a5,t3
    80002890:	14079073          	csrw	sscratch,a5
    80002894:	1a200793          	li	a5,418
    80002898:	30279073          	csrw	medeleg,a5
    8000289c:	0901e7b7          	lui	a5,0x901e
    800028a0:	30079073          	csrw	mstatus,a5
    800028a4:	30405073          	csrwi	mie,0
    800028a8:	00006697          	auipc	a3,0x6
    800028ac:	75868693          	addi	a3,a3,1880 # 80009000 <freelist_nodes>
    800028b0:	01c687b3          	add	a5,a3,t3
    800028b4:	3e078713          	addi	a4,a5,992 # 901e3e0 <reset_vector-0x76fe1c20>
    800028b8:	00007597          	auipc	a1,0x7
    800028bc:	f2f5b823          	sd	a5,-208(a1) # 800097e8 <freelist_head>
    800028c0:	00007797          	auipc	a5,0x7
    800028c4:	f2e7b023          	sd	a4,-224(a5) # 800097e0 <freelist_tail>
    800028c8:	00007f17          	auipc	t5,0x7
    800028cc:	b28f0f13          	addi	t5,t5,-1240 # 800093f0 <user_mapping>
    800028d0:	200005b7          	lui	a1,0x20000
    800028d4:	01d00793          	li	a5,29
    800028d8:	00080eb7          	lui	t4,0x80
    800028dc:	010e0e13          	addi	t3,t3,16
    800028e0:	03f7871b          	addiw	a4,a5,63
    800028e4:	02071713          	slli	a4,a4,0x20
    800028e8:	0017d81b          	srliw	a6,a5,0x1
    800028ec:	02075713          	srli	a4,a4,0x20
    800028f0:	00f847b3          	xor	a5,a6,a5
    800028f4:	01d70733          	add	a4,a4,t4
    800028f8:	01c68333          	add	t1,a3,t3
    800028fc:	00f5e893          	ori	a7,a1,15
    80002900:	00c71713          	slli	a4,a4,0xc
    80002904:	0057979b          	slliw	a5,a5,0x5
    80002908:	00e6b023          	sd	a4,0(a3)
    8000290c:	0066b423          	sd	t1,8(a3)
    80002910:	0207f793          	andi	a5,a5,32
    80002914:	01163023          	sd	a7,0(a2)
    80002918:	01068693          	addi	a3,a3,16
    8000291c:	00f867b3          	or	a5,a6,a5
    80002920:	40058593          	addi	a1,a1,1024 # 20000400 <reset_vector-0x5ffffc00>
    80002924:	00860613          	addi	a2,a2,8
    80002928:	fadf1ce3          	bne	t5,a3,800028e0 <vm_boot+0x104>
    8000292c:	00050413          	mv	s0,a0
    80002930:	12000613          	li	a2,288
    80002934:	00000593          	li	a1,0
    80002938:	00010513          	mv	a0,sp
    8000293c:	00007797          	auipc	a5,0x7
    80002940:	aa07b623          	sd	zero,-1364(a5) # 800093e8 <freelist_nodes+0x3e8>
    80002944:	f14ff0ef          	jal	80002058 <memset>
    80002948:	800007b7          	lui	a5,0x80000
    8000294c:	00f40433          	add	s0,s0,a5
    80002950:	00010513          	mv	a0,sp
    80002954:	10813423          	sd	s0,264(sp)
    80002958:	ffffd317          	auipc	t1,0xffffd
    8000295c:	6e4300e7          	jalr	t1,1764 # 8000003c <pop_tf>
    80002960:	12813083          	ld	ra,296(sp)
    80002964:	12013403          	ld	s0,288(sp)
    80002968:	13010113          	addi	sp,sp,304
    8000296c:	00008067          	ret
    80002970:	0605c7b7          	lui	a5,0x605c
    80002974:	000805b7          	lui	a1,0x80
    80002978:	4677879b          	addiw	a5,a5,1127
    8000297c:	ffc5859b          	addiw	a1,a1,-4
    80002980:	00b7f733          	and	a4,a5,a1
    80002984:	00100613          	li	a2,1
    80002988:	02071713          	slli	a4,a4,0x20
    8000298c:	01f61613          	slli	a2,a2,0x1f
    80002990:	02075713          	srli	a4,a4,0x20
    80002994:	0017f693          	andi	a3,a5,1
    80002998:	02079793          	slli	a5,a5,0x20
    8000299c:	0207d793          	srli	a5,a5,0x20
    800029a0:	00c70733          	add	a4,a4,a2
    800029a4:	02068663          	beqz	a3,800029d0 <vm_boot+0x1f4>
    800029a8:	0007202f          	amoadd.w	zero,zero,(a4)
    800029ac:	0017d793          	srli	a5,a5,0x1
    800029b0:	00b7f733          	and	a4,a5,a1
    800029b4:	02071713          	slli	a4,a4,0x20
    800029b8:	02075713          	srli	a4,a4,0x20
    800029bc:	0017f693          	andi	a3,a5,1
    800029c0:	02079793          	slli	a5,a5,0x20
    800029c4:	0207d793          	srli	a5,a5,0x20
    800029c8:	00c70733          	add	a4,a4,a2
    800029cc:	fc069ee3          	bnez	a3,800029a8 <vm_boot+0x1cc>
    800029d0:	00072003          	lw	zero,0(a4)
    800029d4:	0017d793          	srli	a5,a5,0x1
    800029d8:	fd9ff06f          	j	800029b0 <vm_boot+0x1d4>

00000000800029dc <userstart>:
    800029dc:	00301073          	fssr	zero

00000000800029e0 <test_2>:
    800029e0:	00200e13          	li	t3,2
    800029e4:	00000517          	auipc	a0,0x0
    800029e8:	61c50513          	addi	a0,a0,1564 # 80003000 <test_2_data>
    800029ec:	00053007          	fld	ft0,0(a0)
    800029f0:	00853087          	fld	ft1,8(a0)
    800029f4:	01053107          	fld	ft2,16(a0)
    800029f8:	01853683          	ld	a3,24(a0)
    800029fc:	221001d3          	fsgnj.d	ft3,ft0,ft1
    80002a00:	e2018553          	fmv.x.d	a0,ft3
    80002a04:	001015f3          	fsflags	a1,zero
    80002a08:	00000613          	li	a2,0
    80002a0c:	24d51463          	bne	a0,a3,80002c54 <fail>
    80002a10:	24c59263          	bne	a1,a2,80002c54 <fail>

0000000080002a14 <test_3>:
    80002a14:	00300e13          	li	t3,3
    80002a18:	00000517          	auipc	a0,0x0
    80002a1c:	60850513          	addi	a0,a0,1544 # 80003020 <test_3_data>
    80002a20:	00053007          	fld	ft0,0(a0)
    80002a24:	00853087          	fld	ft1,8(a0)
    80002a28:	01053107          	fld	ft2,16(a0)
    80002a2c:	01853683          	ld	a3,24(a0)
    80002a30:	221001d3          	fsgnj.d	ft3,ft0,ft1
    80002a34:	e2018553          	fmv.x.d	a0,ft3
    80002a38:	001015f3          	fsflags	a1,zero
    80002a3c:	00000613          	li	a2,0
    80002a40:	20d51a63          	bne	a0,a3,80002c54 <fail>
    80002a44:	20c59863          	bne	a1,a2,80002c54 <fail>

0000000080002a48 <test_4>:
    80002a48:	00400e13          	li	t3,4
    80002a4c:	00000517          	auipc	a0,0x0
    80002a50:	5f450513          	addi	a0,a0,1524 # 80003040 <test_4_data>
    80002a54:	00053007          	fld	ft0,0(a0)
    80002a58:	00853087          	fld	ft1,8(a0)
    80002a5c:	01053107          	fld	ft2,16(a0)
    80002a60:	01853683          	ld	a3,24(a0)
    80002a64:	221001d3          	fsgnj.d	ft3,ft0,ft1
    80002a68:	e2018553          	fmv.x.d	a0,ft3
    80002a6c:	001015f3          	fsflags	a1,zero
    80002a70:	00000613          	li	a2,0
    80002a74:	1ed51063          	bne	a0,a3,80002c54 <fail>
    80002a78:	1cc59e63          	bne	a1,a2,80002c54 <fail>

0000000080002a7c <test_5>:
    80002a7c:	00500e13          	li	t3,5
    80002a80:	00000517          	auipc	a0,0x0
    80002a84:	5e050513          	addi	a0,a0,1504 # 80003060 <test_5_data>
    80002a88:	00053007          	fld	ft0,0(a0)
    80002a8c:	00853087          	fld	ft1,8(a0)
    80002a90:	01053107          	fld	ft2,16(a0)
    80002a94:	01853683          	ld	a3,24(a0)
    80002a98:	221001d3          	fsgnj.d	ft3,ft0,ft1
    80002a9c:	e2018553          	fmv.x.d	a0,ft3
    80002aa0:	001015f3          	fsflags	a1,zero
    80002aa4:	00000613          	li	a2,0
    80002aa8:	1ad51663          	bne	a0,a3,80002c54 <fail>
    80002aac:	1ac59463          	bne	a1,a2,80002c54 <fail>

0000000080002ab0 <test_12>:
    80002ab0:	00c00e13          	li	t3,12
    80002ab4:	00000517          	auipc	a0,0x0
    80002ab8:	5cc50513          	addi	a0,a0,1484 # 80003080 <test_12_data>
    80002abc:	00053007          	fld	ft0,0(a0)
    80002ac0:	00853087          	fld	ft1,8(a0)
    80002ac4:	01053107          	fld	ft2,16(a0)
    80002ac8:	01853683          	ld	a3,24(a0)
    80002acc:	221011d3          	fsgnjn.d	ft3,ft0,ft1
    80002ad0:	e2018553          	fmv.x.d	a0,ft3
    80002ad4:	001015f3          	fsflags	a1,zero
    80002ad8:	00000613          	li	a2,0
    80002adc:	16d51c63          	bne	a0,a3,80002c54 <fail>
    80002ae0:	16c59a63          	bne	a1,a2,80002c54 <fail>

0000000080002ae4 <test_13>:
    80002ae4:	00d00e13          	li	t3,13
    80002ae8:	00000517          	auipc	a0,0x0
    80002aec:	5b850513          	addi	a0,a0,1464 # 800030a0 <test_13_data>
    80002af0:	00053007          	fld	ft0,0(a0)
    80002af4:	00853087          	fld	ft1,8(a0)
    80002af8:	01053107          	fld	ft2,16(a0)
    80002afc:	01853683          	ld	a3,24(a0)
    80002b00:	221011d3          	fsgnjn.d	ft3,ft0,ft1
    80002b04:	e2018553          	fmv.x.d	a0,ft3
    80002b08:	001015f3          	fsflags	a1,zero
    80002b0c:	00000613          	li	a2,0
    80002b10:	14d51263          	bne	a0,a3,80002c54 <fail>
    80002b14:	14c59063          	bne	a1,a2,80002c54 <fail>

0000000080002b18 <test_14>:
    80002b18:	00e00e13          	li	t3,14
    80002b1c:	00000517          	auipc	a0,0x0
    80002b20:	5a450513          	addi	a0,a0,1444 # 800030c0 <test_14_data>
    80002b24:	00053007          	fld	ft0,0(a0)
    80002b28:	00853087          	fld	ft1,8(a0)
    80002b2c:	01053107          	fld	ft2,16(a0)
    80002b30:	01853683          	ld	a3,24(a0)
    80002b34:	221011d3          	fsgnjn.d	ft3,ft0,ft1
    80002b38:	e2018553          	fmv.x.d	a0,ft3
    80002b3c:	001015f3          	fsflags	a1,zero
    80002b40:	00000613          	li	a2,0
    80002b44:	10d51863          	bne	a0,a3,80002c54 <fail>
    80002b48:	10c59663          	bne	a1,a2,80002c54 <fail>

0000000080002b4c <test_15>:
    80002b4c:	00f00e13          	li	t3,15
    80002b50:	00000517          	auipc	a0,0x0
    80002b54:	59050513          	addi	a0,a0,1424 # 800030e0 <test_15_data>
    80002b58:	00053007          	fld	ft0,0(a0)
    80002b5c:	00853087          	fld	ft1,8(a0)
    80002b60:	01053107          	fld	ft2,16(a0)
    80002b64:	01853683          	ld	a3,24(a0)
    80002b68:	221011d3          	fsgnjn.d	ft3,ft0,ft1
    80002b6c:	e2018553          	fmv.x.d	a0,ft3
    80002b70:	001015f3          	fsflags	a1,zero
    80002b74:	00000613          	li	a2,0
    80002b78:	0cd51e63          	bne	a0,a3,80002c54 <fail>
    80002b7c:	0cc59c63          	bne	a1,a2,80002c54 <fail>

0000000080002b80 <test_22>:
    80002b80:	01600e13          	li	t3,22
    80002b84:	00000517          	auipc	a0,0x0
    80002b88:	57c50513          	addi	a0,a0,1404 # 80003100 <test_22_data>
    80002b8c:	00053007          	fld	ft0,0(a0)
    80002b90:	00853087          	fld	ft1,8(a0)
    80002b94:	01053107          	fld	ft2,16(a0)
    80002b98:	01853683          	ld	a3,24(a0)
    80002b9c:	221021d3          	fsgnjx.d	ft3,ft0,ft1
    80002ba0:	e2018553          	fmv.x.d	a0,ft3
    80002ba4:	001015f3          	fsflags	a1,zero
    80002ba8:	00000613          	li	a2,0
    80002bac:	0ad51463          	bne	a0,a3,80002c54 <fail>
    80002bb0:	0ac59263          	bne	a1,a2,80002c54 <fail>

0000000080002bb4 <test_23>:
    80002bb4:	01700e13          	li	t3,23
    80002bb8:	00000517          	auipc	a0,0x0
    80002bbc:	56850513          	addi	a0,a0,1384 # 80003120 <test_23_data>
    80002bc0:	00053007          	fld	ft0,0(a0)
    80002bc4:	00853087          	fld	ft1,8(a0)
    80002bc8:	01053107          	fld	ft2,16(a0)
    80002bcc:	01853683          	ld	a3,24(a0)
    80002bd0:	221021d3          	fsgnjx.d	ft3,ft0,ft1
    80002bd4:	e2018553          	fmv.x.d	a0,ft3
    80002bd8:	001015f3          	fsflags	a1,zero
    80002bdc:	00000613          	li	a2,0
    80002be0:	06d51a63          	bne	a0,a3,80002c54 <fail>
    80002be4:	06c59863          	bne	a1,a2,80002c54 <fail>

0000000080002be8 <test_24>:
    80002be8:	01800e13          	li	t3,24
    80002bec:	00000517          	auipc	a0,0x0
    80002bf0:	55450513          	addi	a0,a0,1364 # 80003140 <test_24_data>
    80002bf4:	00053007          	fld	ft0,0(a0)
    80002bf8:	00853087          	fld	ft1,8(a0)
    80002bfc:	01053107          	fld	ft2,16(a0)
    80002c00:	01853683          	ld	a3,24(a0)
    80002c04:	221021d3          	fsgnjx.d	ft3,ft0,ft1
    80002c08:	e2018553          	fmv.x.d	a0,ft3
    80002c0c:	001015f3          	fsflags	a1,zero
    80002c10:	00000613          	li	a2,0
    80002c14:	04d51063          	bne	a0,a3,80002c54 <fail>
    80002c18:	02c59e63          	bne	a1,a2,80002c54 <fail>

0000000080002c1c <test_25>:
    80002c1c:	01900e13          	li	t3,25
    80002c20:	00000517          	auipc	a0,0x0
    80002c24:	54050513          	addi	a0,a0,1344 # 80003160 <test_25_data>
    80002c28:	00053007          	fld	ft0,0(a0)
    80002c2c:	00853087          	fld	ft1,8(a0)
    80002c30:	01053107          	fld	ft2,16(a0)
    80002c34:	01853683          	ld	a3,24(a0)
    80002c38:	221021d3          	fsgnjx.d	ft3,ft0,ft1
    80002c3c:	e2018553          	fmv.x.d	a0,ft3
    80002c40:	001015f3          	fsflags	a1,zero
    80002c44:	00000613          	li	a2,0
    80002c48:	00d51663          	bne	a0,a3,80002c54 <fail>
    80002c4c:	00c59463          	bne	a1,a2,80002c54 <fail>
    80002c50:	01c01a63          	bne	zero,t3,80002c64 <pass>

0000000080002c54 <fail>:
    80002c54:	001e1513          	slli	a0,t3,0x1
    80002c58:	00050063          	beqz	a0,80002c58 <fail+0x4>
    80002c5c:	00156513          	ori	a0,a0,1
    80002c60:	00000073          	ecall

0000000080002c64 <pass>:
    80002c64:	00100513          	li	a0,1
    80002c68:	00000073          	ecall
    80002c6c:	c0001073          	unimp
