
rv64ud-p-fadd:     file format elf64-littleriscv


Disassembly of section .text.init:

0000000080000000 <_start>:
    80000000:	04c0006f          	j	8000004c <reset_vector>

0000000080000004 <trap_vector>:
    80000004:	34202f73          	csrr	t5,mcause
    80000008:	00800f93          	li	t6,8
    8000000c:	03ff0a63          	beq	t5,t6,80000040 <write_tohost>
    80000010:	00900f93          	li	t6,9
    80000014:	03ff0663          	beq	t5,t6,80000040 <write_tohost>
    80000018:	00b00f93          	li	t6,11
    8000001c:	03ff0263          	beq	t5,t6,80000040 <write_tohost>
    80000020:	80000f17          	auipc	t5,0x80000
    80000024:	fe0f0f13          	addi	t5,t5,-32 # 0 <_start-0x80000000>
    80000028:	000f0463          	beqz	t5,80000030 <trap_vector+0x2c>
    8000002c:	000f0067          	jr	t5
    80000030:	34202f73          	csrr	t5,mcause
    80000034:	000f5463          	bgez	t5,8000003c <handle_exception>
    80000038:	0040006f          	j	8000003c <handle_exception>

000000008000003c <handle_exception>:
    8000003c:	539e6e13          	ori	t3,t3,1337

0000000080000040 <write_tohost>:
    80000040:	00001f17          	auipc	t5,0x1
    80000044:	fdcf2023          	sw	t3,-64(t5) # 80001000 <tohost>
    80000048:	ff9ff06f          	j	80000040 <write_tohost>

000000008000004c <reset_vector>:
    8000004c:	f1402573          	csrr	a0,mhartid
    80000050:	00051063          	bnez	a0,80000050 <reset_vector+0x4>
    80000054:	30102573          	csrr	a0,misa
    80000058:	00054863          	bltz	a0,80000068 <reset_vector+0x1c>
    8000005c:	0ff0000f          	fence
    80000060:	00100e13          	li	t3,1
    80000064:	00000073          	ecall
    80000068:	00000e13          	li	t3,0
    8000006c:	00000297          	auipc	t0,0x0
    80000070:	f9828293          	addi	t0,t0,-104 # 80000004 <trap_vector>
    80000074:	30529073          	csrw	mtvec,t0
    80000078:	30205073          	csrwi	medeleg,0
    8000007c:	30305073          	csrwi	mideleg,0
    80000080:	30405073          	csrwi	mie,0
    80000084:	80000297          	auipc	t0,0x80000
    80000088:	f7c28293          	addi	t0,t0,-132 # 0 <_start-0x80000000>
    8000008c:	00028c63          	beqz	t0,800000a4 <reset_vector+0x58>
    80000090:	10529073          	csrw	stvec,t0
    80000094:	1ab00293          	li	t0,427
    80000098:	30229073          	csrw	medeleg,t0
    8000009c:	30202373          	csrr	t1,medeleg
    800000a0:	f8629ee3          	bne	t0,t1,8000003c <handle_exception>
    800000a4:	30005073          	csrwi	mstatus,0
    800000a8:	00002537          	lui	a0,0x2
    800000ac:	30052073          	csrs	mstatus,a0
    800000b0:	00305073          	csrwi	fcsr,0
    800000b4:	00000297          	auipc	t0,0x0
    800000b8:	01428293          	addi	t0,t0,20 # 800000c8 <test_2>
    800000bc:	34129073          	csrw	mepc,t0
    800000c0:	f1402573          	csrr	a0,mhartid
    800000c4:	30200073          	mret

00000000800000c8 <test_2>:
    800000c8:	00200e13          	li	t3,2
    800000cc:	00002517          	auipc	a0,0x2
    800000d0:	f3450513          	addi	a0,a0,-204 # 80002000 <test_2_data>
    800000d4:	00053007          	fld	ft0,0(a0)
    800000d8:	00853087          	fld	ft1,8(a0)
    800000dc:	01053107          	fld	ft2,16(a0)
    800000e0:	01853683          	ld	a3,24(a0)
    800000e4:	021071d3          	fadd.d	ft3,ft0,ft1
    800000e8:	e2018553          	fmv.x.d	a0,ft3
    800000ec:	001015f3          	fsflags	a1,zero
    800000f0:	00000613          	li	a2,0
    800000f4:	1ed51063          	bne	a0,a3,800002d4 <fail>
    800000f8:	1cc59e63          	bne	a1,a2,800002d4 <fail>

00000000800000fc <test_3>:
    800000fc:	00300e13          	li	t3,3
    80000100:	00002517          	auipc	a0,0x2
    80000104:	f2050513          	addi	a0,a0,-224 # 80002020 <test_3_data>
    80000108:	00053007          	fld	ft0,0(a0)
    8000010c:	00853087          	fld	ft1,8(a0)
    80000110:	01053107          	fld	ft2,16(a0)
    80000114:	01853683          	ld	a3,24(a0)
    80000118:	021071d3          	fadd.d	ft3,ft0,ft1
    8000011c:	e2018553          	fmv.x.d	a0,ft3
    80000120:	001015f3          	fsflags	a1,zero
    80000124:	00100613          	li	a2,1
    80000128:	1ad51663          	bne	a0,a3,800002d4 <fail>
    8000012c:	1ac59463          	bne	a1,a2,800002d4 <fail>

0000000080000130 <test_4>:
    80000130:	00400e13          	li	t3,4
    80000134:	00002517          	auipc	a0,0x2
    80000138:	f0c50513          	addi	a0,a0,-244 # 80002040 <test_4_data>
    8000013c:	00053007          	fld	ft0,0(a0)
    80000140:	00853087          	fld	ft1,8(a0)
    80000144:	01053107          	fld	ft2,16(a0)
    80000148:	01853683          	ld	a3,24(a0)
    8000014c:	021071d3          	fadd.d	ft3,ft0,ft1
    80000150:	e2018553          	fmv.x.d	a0,ft3
    80000154:	001015f3          	fsflags	a1,zero
    80000158:	00100613          	li	a2,1
    8000015c:	16d51c63          	bne	a0,a3,800002d4 <fail>
    80000160:	16c59a63          	bne	a1,a2,800002d4 <fail>

0000000080000164 <test_5>:
    80000164:	00500e13          	li	t3,5
    80000168:	00002517          	auipc	a0,0x2
    8000016c:	ef850513          	addi	a0,a0,-264 # 80002060 <test_5_data>
    80000170:	00053007          	fld	ft0,0(a0)
    80000174:	00853087          	fld	ft1,8(a0)
    80000178:	01053107          	fld	ft2,16(a0)
    8000017c:	01853683          	ld	a3,24(a0)
    80000180:	0a1071d3          	fsub.d	ft3,ft0,ft1
    80000184:	e2018553          	fmv.x.d	a0,ft3
    80000188:	001015f3          	fsflags	a1,zero
    8000018c:	00000613          	li	a2,0
    80000190:	14d51263          	bne	a0,a3,800002d4 <fail>
    80000194:	14c59063          	bne	a1,a2,800002d4 <fail>

0000000080000198 <test_6>:
    80000198:	00600e13          	li	t3,6
    8000019c:	00002517          	auipc	a0,0x2
    800001a0:	ee450513          	addi	a0,a0,-284 # 80002080 <test_6_data>
    800001a4:	00053007          	fld	ft0,0(a0)
    800001a8:	00853087          	fld	ft1,8(a0)
    800001ac:	01053107          	fld	ft2,16(a0)
    800001b0:	01853683          	ld	a3,24(a0)
    800001b4:	0a1071d3          	fsub.d	ft3,ft0,ft1
    800001b8:	e2018553          	fmv.x.d	a0,ft3
    800001bc:	001015f3          	fsflags	a1,zero
    800001c0:	00100613          	li	a2,1
    800001c4:	10d51863          	bne	a0,a3,800002d4 <fail>
    800001c8:	10c59663          	bne	a1,a2,800002d4 <fail>

00000000800001cc <test_7>:
    800001cc:	00700e13          	li	t3,7
    800001d0:	00002517          	auipc	a0,0x2
    800001d4:	ed050513          	addi	a0,a0,-304 # 800020a0 <test_7_data>
    800001d8:	00053007          	fld	ft0,0(a0)
    800001dc:	00853087          	fld	ft1,8(a0)
    800001e0:	01053107          	fld	ft2,16(a0)
    800001e4:	01853683          	ld	a3,24(a0)
    800001e8:	0a1071d3          	fsub.d	ft3,ft0,ft1
    800001ec:	e2018553          	fmv.x.d	a0,ft3
    800001f0:	001015f3          	fsflags	a1,zero
    800001f4:	00100613          	li	a2,1
    800001f8:	0cd51e63          	bne	a0,a3,800002d4 <fail>
    800001fc:	0cc59c63          	bne	a1,a2,800002d4 <fail>

0000000080000200 <test_8>:
    80000200:	00800e13          	li	t3,8
    80000204:	00002517          	auipc	a0,0x2
    80000208:	ebc50513          	addi	a0,a0,-324 # 800020c0 <test_8_data>
    8000020c:	00053007          	fld	ft0,0(a0)
    80000210:	00853087          	fld	ft1,8(a0)
    80000214:	01053107          	fld	ft2,16(a0)
    80000218:	01853683          	ld	a3,24(a0)
    8000021c:	121071d3          	fmul.d	ft3,ft0,ft1
    80000220:	e2018553          	fmv.x.d	a0,ft3
    80000224:	001015f3          	fsflags	a1,zero
    80000228:	00000613          	li	a2,0
    8000022c:	0ad51463          	bne	a0,a3,800002d4 <fail>
    80000230:	0ac59263          	bne	a1,a2,800002d4 <fail>

0000000080000234 <test_9>:
    80000234:	00900e13          	li	t3,9
    80000238:	00002517          	auipc	a0,0x2
    8000023c:	ea850513          	addi	a0,a0,-344 # 800020e0 <test_9_data>
    80000240:	00053007          	fld	ft0,0(a0)
    80000244:	00853087          	fld	ft1,8(a0)
    80000248:	01053107          	fld	ft2,16(a0)
    8000024c:	01853683          	ld	a3,24(a0)
    80000250:	121071d3          	fmul.d	ft3,ft0,ft1
    80000254:	e2018553          	fmv.x.d	a0,ft3
    80000258:	001015f3          	fsflags	a1,zero
    8000025c:	00100613          	li	a2,1
    80000260:	06d51a63          	bne	a0,a3,800002d4 <fail>
    80000264:	06c59863          	bne	a1,a2,800002d4 <fail>

0000000080000268 <test_10>:
    80000268:	00a00e13          	li	t3,10
    8000026c:	00002517          	auipc	a0,0x2
    80000270:	e9450513          	addi	a0,a0,-364 # 80002100 <test_10_data>
    80000274:	00053007          	fld	ft0,0(a0)
    80000278:	00853087          	fld	ft1,8(a0)
    8000027c:	01053107          	fld	ft2,16(a0)
    80000280:	01853683          	ld	a3,24(a0)
    80000284:	121071d3          	fmul.d	ft3,ft0,ft1
    80000288:	e2018553          	fmv.x.d	a0,ft3
    8000028c:	001015f3          	fsflags	a1,zero
    80000290:	00100613          	li	a2,1
    80000294:	04d51063          	bne	a0,a3,800002d4 <fail>
    80000298:	02c59e63          	bne	a1,a2,800002d4 <fail>

000000008000029c <test_11>:
    8000029c:	00b00e13          	li	t3,11
    800002a0:	00002517          	auipc	a0,0x2
    800002a4:	e8050513          	addi	a0,a0,-384 # 80002120 <test_11_data>
    800002a8:	00053007          	fld	ft0,0(a0)
    800002ac:	00853087          	fld	ft1,8(a0)
    800002b0:	01053107          	fld	ft2,16(a0)
    800002b4:	01853683          	ld	a3,24(a0)
    800002b8:	0a1071d3          	fsub.d	ft3,ft0,ft1
    800002bc:	e2018553          	fmv.x.d	a0,ft3
    800002c0:	001015f3          	fsflags	a1,zero
    800002c4:	01000613          	li	a2,16
    800002c8:	00d51663          	bne	a0,a3,800002d4 <fail>
    800002cc:	00c59463          	bne	a1,a2,800002d4 <fail>
    800002d0:	01c01c63          	bne	zero,t3,800002e8 <pass>

00000000800002d4 <fail>:
    800002d4:	0ff0000f          	fence
    800002d8:	000e0063          	beqz	t3,800002d8 <fail+0x4>
    800002dc:	001e1e13          	slli	t3,t3,0x1
    800002e0:	001e6e13          	ori	t3,t3,1
    800002e4:	00000073          	ecall

00000000800002e8 <pass>:
    800002e8:	0ff0000f          	fence
    800002ec:	00100e13          	li	t3,1
    800002f0:	00000073          	ecall
    800002f4:	c0001073          	unimp

Disassembly of section .data:

0000000080002000 <test_2_data>:
    80002000:	0000                	unimp
    80002002:	0000                	unimp
    80002004:	0000                	unimp
    80002006:	4004                	lw	s1,0(s0)
    80002008:	0000                	unimp
    8000200a:	0000                	unimp
    8000200c:	0000                	unimp
    8000200e:	3ff0                	fld	fa2,248(a5)
    80002010:	0000                	unimp
    80002012:	0000                	unimp
    80002014:	0000                	unimp
    80002016:	0000                	unimp
    80002018:	0000                	unimp
    8000201a:	0000                	unimp
    8000201c:	0000                	unimp
    8000201e:	400c                	lw	a1,0(s0)

0000000080002020 <test_3_data>:
    80002020:	6666                	ld	a2,88(sp)
    80002022:	6666                	ld	a2,88(sp)
    80002024:	4c66                	lw	s8,88(sp)
    80002026:	999ac093          	xori	ra,s5,-1639
    8000202a:	9999                	andi	a1,a1,-26
    8000202c:	9999                	andi	a1,a1,-26
    8000202e:	3ff1                	addiw	t6,t6,-4
    80002030:	0000                	unimp
    80002032:	0000                	unimp
    80002034:	0000                	unimp
    80002036:	0000                	unimp
    80002038:	0000                	unimp
    8000203a:	0000                	unimp
    8000203c:	4800                	lw	s0,16(s0)
    8000203e:	d4f1c093          	xori	ra,gp,-689

0000000080002040 <test_4_data>:
    80002040:	d4f1                	beqz	s1,8000200c <test_2_data+0xc>
    80002042:	53c8                	lw	a0,36(a5)
    80002044:	400921fb          	0x400921fb
    80002048:	8c3a                	mv	s8,a4
    8000204a:	e230                	sd	a2,64(a2)
    8000204c:	798e                	ld	s3,224(sp)
    8000204e:	3e45                	addiw	t3,t3,-15
    80002050:	0000                	unimp
    80002052:	0000                	unimp
    80002054:	0000                	unimp
    80002056:	0000                	unimp
    80002058:	6ddf 5520 21fb      	0x21fb55206ddf
    8000205e:	4009                	0x4009

0000000080002060 <test_5_data>:
    80002060:	0000                	unimp
    80002062:	0000                	unimp
    80002064:	0000                	unimp
    80002066:	4004                	lw	s1,0(s0)
    80002068:	0000                	unimp
    8000206a:	0000                	unimp
    8000206c:	0000                	unimp
    8000206e:	3ff0                	fld	fa2,248(a5)
    80002070:	0000                	unimp
    80002072:	0000                	unimp
    80002074:	0000                	unimp
    80002076:	0000                	unimp
    80002078:	0000                	unimp
    8000207a:	0000                	unimp
    8000207c:	0000                	unimp
    8000207e:	3ff8                	fld	fa4,248(a5)

0000000080002080 <test_6_data>:
    80002080:	6666                	ld	a2,88(sp)
    80002082:	6666                	ld	a2,88(sp)
    80002084:	4c66                	lw	s8,88(sp)
    80002086:	999ac093          	xori	ra,s5,-1639
    8000208a:	9999                	andi	a1,a1,-26
    8000208c:	9999                	andi	a1,a1,-26
    8000208e:	bff1                	j	8000206a <test_5_data+0xa>
    80002090:	0000                	unimp
    80002092:	0000                	unimp
    80002094:	0000                	unimp
    80002096:	0000                	unimp
    80002098:	0000                	unimp
    8000209a:	0000                	unimp
    8000209c:	4800                	lw	s0,16(s0)
    8000209e:	d4f1c093          	xori	ra,gp,-689

00000000800020a0 <test_7_data>:
    800020a0:	d4f1                	beqz	s1,8000206c <test_5_data+0xc>
    800020a2:	53c8                	lw	a0,36(a5)
    800020a4:	400921fb          	0x400921fb
    800020a8:	8c3a                	mv	s8,a4
    800020aa:	e230                	sd	a2,64(a2)
    800020ac:	798e                	ld	s3,224(sp)
    800020ae:	3e45                	addiw	t3,t3,-15
    800020b0:	0000                	unimp
    800020b2:	0000                	unimp
    800020b4:	0000                	unimp
    800020b6:	0000                	unimp
    800020b8:	52713c03          	ld	s8,1319(sp)
    800020bc:	400921fb          	0x400921fb

00000000800020c0 <test_8_data>:
    800020c0:	0000                	unimp
    800020c2:	0000                	unimp
    800020c4:	0000                	unimp
    800020c6:	4004                	lw	s1,0(s0)
    800020c8:	0000                	unimp
    800020ca:	0000                	unimp
    800020cc:	0000                	unimp
    800020ce:	3ff0                	fld	fa2,248(a5)
    800020d0:	0000                	unimp
    800020d2:	0000                	unimp
    800020d4:	0000                	unimp
    800020d6:	0000                	unimp
    800020d8:	0000                	unimp
    800020da:	0000                	unimp
    800020dc:	0000                	unimp
    800020de:	4004                	lw	s1,0(s0)

00000000800020e0 <test_9_data>:
    800020e0:	6666                	ld	a2,88(sp)
    800020e2:	6666                	ld	a2,88(sp)
    800020e4:	4c66                	lw	s8,88(sp)
    800020e6:	999ac093          	xori	ra,s5,-1639
    800020ea:	9999                	andi	a1,a1,-26
    800020ec:	9999                	andi	a1,a1,-26
    800020ee:	bff1                	j	800020ca <test_8_data+0xa>
    800020f0:	0000                	unimp
    800020f2:	0000                	unimp
    800020f4:	0000                	unimp
    800020f6:	0000                	unimp
    800020f8:	0a3d                	addi	s4,s4,15
    800020fa:	3a70a3d7          	0x3a70a3d7
    800020fe:	4095                	li	ra,5

0000000080002100 <test_10_data>:
    80002100:	d4f1                	beqz	s1,800020cc <test_8_data+0xc>
    80002102:	53c8                	lw	a0,36(a5)
    80002104:	400921fb          	0x400921fb
    80002108:	8c3a                	mv	s8,a4
    8000210a:	e230                	sd	a2,64(a2)
    8000210c:	798e                	ld	s3,224(sp)
    8000210e:	3e45                	addiw	t3,t3,-15
    80002110:	0000                	unimp
    80002112:	0000                	unimp
    80002114:	0000                	unimp
    80002116:	0000                	unimp
    80002118:	ff09                	bnez	a4,80002032 <test_3_data+0x12>
    8000211a:	a5c1                	j	800027da <_end+0x69a>
    8000211c:	ddc5                	beqz	a1,800020d4 <test_8_data+0x14>
    8000211e:	3e60                	fld	fs0,248(a2)

0000000080002120 <test_11_data>:
    80002120:	0000                	unimp
    80002122:	0000                	unimp
    80002124:	0000                	unimp
    80002126:	7ff0                	ld	a2,248(a5)
    80002128:	0000                	unimp
    8000212a:	0000                	unimp
    8000212c:	0000                	unimp
    8000212e:	7ff0                	ld	a2,248(a5)
    80002130:	0000                	unimp
    80002132:	0000                	unimp
    80002134:	0000                	unimp
    80002136:	0000                	unimp
    80002138:	0000                	unimp
    8000213a:	0000                	unimp
    8000213c:	0000                	unimp
    8000213e:	7ff8                	ld	a4,248(a5)
